TN:
SF:/home/shuballity/proj/prog_study/2grade/labs/lab3/src/containers/avl.cpp
FN:10,11,_ZN7AVLTreeIiE4NodeC2ERKi
FN:109,114,_ZNK7AVLTreeIiE7findMinEPNS0_4NodeE
FN:117,146,_ZN7AVLTreeIiE10deleteNodeEPNS0_4NodeERKi
FN:14,14,_ZN7AVLTreeIiEC2Ev
FN:149,157,_ZNK7AVLTreeIiE10searchNodeEPNS0_4NodeERKi
FN:160,165,_ZN7AVLTreeIiE9clearNodeEPNS0_4NodeE
FN:168,173,_ZNK7AVLTreeIiE16inorderTraversalEPNS0_4NodeERSo
FN:17,19,_ZN7AVLTreeIiED0Ev
FN:17,19,_ZN7AVLTreeIiED2Ev
FN:176,178,_ZN7AVLTreeIiE6insertERKi
FN:181,183,_ZN7AVLTreeIiE6removeERKi
FN:186,188,_ZNK7AVLTreeIiE6searchERKi
FN:191,195,_ZN7AVLTreeIiE5clearEv
FN:198,200,_ZNK7AVLTreeIiE4sizeEv
FN:203,205,_ZNK7AVLTreeIiE5emptyEv
FN:208,210,_ZNK7AVLTreeIiE6heightEv
FN:213,217,_ZNK7AVLTreeIiE5printERSo
FN:22,24,_ZNK7AVLTreeIiE9getHeightEPNS0_4NodeE
FN:27,29,_ZNK7AVLTreeIiE10getBalanceEPNS0_4NodeE
FN:313,326,_ZNK7AVLTreeIiE14saveBinaryNodeERSt14basic_ofstreamIcSt11char_traitsIcEEPNS0_4NodeE
FN:32,36,_ZN7AVLTreeIiE12updateHeightEPNS0_4NodeE
FN:329,347,_ZN7AVLTreeIiE14loadBinaryNodeERSt14basic_ifstreamIcSt11char_traitsIcEE
FN:350,354,_ZNK7AVLTreeIiE12saveToBinaryERSt14basic_ofstreamIcSt11char_traitsIcEE
FN:357,363,_ZN7AVLTreeIiE14loadFromBinaryERSt14basic_ifstreamIcSt11char_traitsIcEE
FN:39,50,_ZN7AVLTreeIiE11rotateRightEPNS0_4NodeE
FN:53,64,_ZN7AVLTreeIiE10rotateLeftEPNS0_4NodeE
FN:67,87,_ZN7AVLTreeIiE9rebalanceEPNS0_4NodeE
FN:90,106,_ZN7AVLTreeIiE10insertNodeEPNS0_4NodeERKi
FNDA:501,_ZN7AVLTreeIiE4NodeC2ERKi
FNDA:3,_ZNK7AVLTreeIiE7findMinEPNS0_4NodeE
FNDA:822,_ZN7AVLTreeIiE10deleteNodeEPNS0_4NodeERKi
FNDA:63,_ZN7AVLTreeIiEC2Ev
FNDA:2796,_ZNK7AVLTreeIiE10searchNodeEPNS0_4NodeERKi
FNDA:747,_ZN7AVLTreeIiE9clearNodeEPNS0_4NodeE
FNDA:21,_ZNK7AVLTreeIiE16inorderTraversalEPNS0_4NodeERSo
FNDA:60,_ZN7AVLTreeIiED0Ev
FNDA:63,_ZN7AVLTreeIiED2Ev
FNDA:483,_ZN7AVLTreeIiE6insertERKi
FNDA:168,_ZN7AVLTreeIiE6removeERKi
FNDA:594,_ZNK7AVLTreeIiE6searchERKi
FNDA:69,_ZN7AVLTreeIiE5clearEv
FNDA:54,_ZNK7AVLTreeIiE4sizeEv
FNDA:6,_ZNK7AVLTreeIiE5emptyEv
FNDA:3,_ZNK7AVLTreeIiE6heightEv
FNDA:3,_ZNK7AVLTreeIiE5printERSo
FNDA:12921,_ZNK7AVLTreeIiE9getHeightEPNS0_4NodeE
FNDA:3030,_ZNK7AVLTreeIiE10getBalanceEPNS0_4NodeE
FNDA:45,_ZNK7AVLTreeIiE14saveBinaryNodeERSt14basic_ofstreamIcSt11char_traitsIcEEPNS0_4NodeE
FNDA:3429,_ZN7AVLTreeIiE12updateHeightEPNS0_4NodeE
FNDA:45,_ZN7AVLTreeIiE14loadBinaryNodeERSt14basic_ifstreamIcSt11char_traitsIcEE
FNDA:3,_ZNK7AVLTreeIiE12saveToBinaryERSt14basic_ofstreamIcSt11char_traitsIcEE
FNDA:3,_ZN7AVLTreeIiE14loadFromBinaryERSt14basic_ifstreamIcSt11char_traitsIcEE
FNDA:12,_ZN7AVLTreeIiE11rotateRightEPNS0_4NodeE
FNDA:360,_ZN7AVLTreeIiE10rotateLeftEPNS0_4NodeE
FNDA:2664,_ZN7AVLTreeIiE9rebalanceEPNS0_4NodeE
FNDA:2418,_ZN7AVLTreeIiE10insertNodeEPNS0_4NodeERKi
FNF:28
FNH:28
DA:10,501
DA:11,501
DA:14,63
DA:17,123
DA:18,63
DA:19,123
DA:22,12921
DA:23,12921
DA:27,3030
DA:28,3030
DA:32,3429
DA:33,3429
DA:34,3429
DA:36,3429
DA:39,12
DA:40,12
DA:41,12
DA:43,12
DA:44,12
DA:46,12
DA:47,12
DA:49,12
DA:53,360
DA:54,360
DA:55,360
DA:57,360
DA:58,360
DA:60,360
DA:61,360
DA:63,360
DA:67,2664
DA:68,2664
DA:70,2664
DA:72,2664
DA:73,9
DA:74,3
DA:76,9
DA:79,2655
DA:80,357
DA:81,3
DA:83,357
DA:86,2298
DA:90,2418
DA:91,2418
DA:92,480
DA:93,480
DA:96,1938
DA:97,117
DA:98,1821
DA:99,1818
DA:101,3
DA:104,1935
DA:105,1935
DA:109,3
DA:110,3
DA:111,0
DA:113,3
DA:117,822
DA:118,822
DA:120,816
DA:121,645
DA:122,171
DA:123,6
DA:125,165
DA:126,162
DA:127,162
DA:128,87
DA:129,87
DA:131,75
DA:133,162
DA:134,162
DA:135,162
DA:136,3
DA:137,3
DA:138,3
DA:142,816
DA:144,729
DA:145,729
DA:149,2796
DA:150,2796
DA:151,2784
DA:152,2202
DA:153,1134
DA:155,1068
DA:160,747
DA:161,747
DA:162,339
DA:163,339
DA:164,339
DA:168,21
DA:169,21
DA:170,9
DA:171,9
DA:172,9
DA:176,483
DA:177,483
DA:178,483
DA:181,168
DA:182,168
DA:183,168
DA:186,594
DA:187,594
DA:191,69
DA:192,69
DA:193,69
DA:194,69
DA:195,69
DA:198,54
DA:199,54
DA:203,6
DA:204,6
DA:208,3
DA:209,3
DA:213,3
DA:214,3
DA:215,3
DA:216,3
DA:217,3
DA:313,45
DA:314,45
DA:315,24
DA:316,24
DA:317,24
DA:320,21
DA:321,21
DA:322,21
DA:324,21
DA:325,21
DA:329,45
DA:331,45
DA:333,45
DA:334,24
DA:338,21
DA:340,21
DA:341,21
DA:342,21
DA:344,21
DA:346,21
DA:350,3
DA:351,3
DA:352,3
DA:353,3
DA:354,3
DA:357,3
DA:358,3
DA:360,3
DA:361,3
DA:362,3
DA:363,3
LF:149
LH:148
end_of_record
TN:
SF:/home/shuballity/proj/prog_study/2grade/labs/lab3/src/containers/containers.h
FN:13,13,_ZN9ContainerINSt7__cxx1112basic_stringIcSt11char_traitsIcESaIcEEEED0Ev
FN:13,13,_ZN9ContainerINSt7__cxx1112basic_stringIcSt11char_traitsIcESaIcEEEED2Ev
FN:13,13,_ZN9ContainerIiED0Ev
FN:13,13,_ZN9ContainerIiED2Ev
FNDA:0,_ZN9ContainerINSt7__cxx1112basic_stringIcSt11char_traitsIcESaIcEEEED0Ev
FNDA:114,_ZN9ContainerINSt7__cxx1112basic_stringIcSt11char_traitsIcESaIcEEEED2Ev
FNDA:0,_ZN9ContainerIiED0Ev
FNDA:126,_ZN9ContainerIiED2Ev
FNF:4
FNH:2
DA:13,240
LF:1
LH:1
end_of_record
TN:
SF:/home/shuballity/proj/prog_study/2grade/labs/lab3/src/containers/doublelist.cpp
FN:11,13,_ZN10DoubleListIiED0Ev
FN:11,13,_ZN10DoubleListIiED2Ev
FN:16,26,_ZN10DoubleListIiE7addHeadERKi
FN:29,39,_ZN10DoubleListIiE7addTailERKi
FN:42,63,_ZN10DoubleListIiE6removeERKi
FN:5,5,_ZN10DoubleListIiE4NodeC2ERKi
FN:66,74,_ZN10DoubleListIiE5clearEv
FN:77,79,_ZNK10DoubleListIiE4sizeEv
FN:8,8,_ZN10DoubleListIiEC2Ev
FN:82,84,_ZNK10DoubleListIiE5emptyEv
FN:87,96,_ZNK10DoubleListIiE5printERSo
FNDA:30,_ZN10DoubleListIiED0Ev
FNDA:30,_ZN10DoubleListIiED2Ev
FNDA:12,_ZN10DoubleListIiE7addHeadERKi
FNDA:54,_ZN10DoubleListIiE7addTailERKi
FNDA:12,_ZN10DoubleListIiE6removeERKi
FNDA:66,_ZN10DoubleListIiE4NodeC2ERKi
FNDA:33,_ZN10DoubleListIiE5clearEv
FNDA:27,_ZNK10DoubleListIiE4sizeEv
FNDA:30,_ZN10DoubleListIiEC2Ev
FNDA:9,_ZNK10DoubleListIiE5emptyEv
FNDA:3,_ZNK10DoubleListIiE5printERSo
FNF:11
FNH:11
DA:5,66
DA:8,30
DA:11,60
DA:12,30
DA:13,60
DA:16,12
DA:17,12
DA:18,12
DA:19,6
DA:21,6
DA:22,6
DA:23,6
DA:25,12
DA:26,12
DA:29,54
DA:30,54
DA:31,54
DA:32,21
DA:34,33
DA:35,33
DA:36,33
DA:38,54
DA:39,54
DA:42,12
DA:43,12
DA:44,24
DA:45,21
DA:46,9
DA:47,6
DA:49,3
DA:51,9
DA:52,6
DA:54,3
DA:56,9
DA:57,9
DA:58,9
DA:60,12
DA:62,3
DA:66,33
DA:67,123
DA:68,57
DA:69,57
DA:70,57
DA:72,33
DA:73,33
DA:74,33
DA:77,27
DA:78,27
DA:82,9
DA:83,9
DA:87,3
DA:88,3
DA:89,3
DA:90,12
DA:91,9
DA:92,9
DA:93,9
DA:95,3
DA:96,3
LF:59
LH:59
end_of_record
TN:
SF:/home/shuballity/proj/prog_study/2grade/labs/lab3/src/containers/hash.h
FN:121,121,_ZN7HashMapINSt7__cxx1112basic_stringIcSt11char_traitsIcESaIcEEES5_E5EntryC2Ev
FN:121,121,_ZN7HashMapIibE5EntryC2Ev
FN:121,121,_ZN7HashMapIiiE5EntryC2Ev
FN:124,124,_ZN7HashMapINSt7__cxx1112basic_stringIcSt11char_traitsIcESaIcEEES5_E5EntryC2ERKS5_S9_
FN:124,124,_ZN7HashMapIibE5EntryC2ERKiRKb
FN:124,124,_ZN7HashMapIiiE5EntryC2ERKiS3_
FN:127,130,_ZN7HashMapINSt7__cxx1112basic_stringIcSt11char_traitsIcESaIcEEES5_EC2Em
FN:127,130,_ZN7HashMapIibEC2Em
FN:127,130,_ZN7HashMapIiiEC2Em
FN:133,136,_ZNK7HashMapINSt7__cxx1112basic_stringIcSt11char_traitsIcESaIcEEES5_E5hash1ERKS5_
FN:133,136,_ZNK7HashMapIibE5hash1ERKi
FN:133,136,_ZNK7HashMapIiiE5hash1ERKi
FN:139,143,_ZNK7HashMapINSt7__cxx1112basic_stringIcSt11char_traitsIcESaIcEEES5_E5hash2ERKS5_
FN:139,143,_ZNK7HashMapIibE5hash2ERKi
FN:139,143,_ZNK7HashMapIiiE5hash2ERKi
FN:146,161,_ZNK7HashMapINSt7__cxx1112basic_stringIcSt11char_traitsIcESaIcEEES5_E9findIndexERKS5_Rm
FN:146,161,_ZNK7HashMapIibE9findIndexERKiRm
FN:146,161,_ZNK7HashMapIiiE9findIndexERKiRm
FN:164,176,_ZN7HashMapINSt7__cxx1112basic_stringIcSt11char_traitsIcESaIcEEES5_E3putERKS5_S8_
FN:164,176,_ZN7HashMapIibE3putERKiRKb
FN:164,176,_ZN7HashMapIiiE3putERKiS2_
FN:179,185,_ZNK7HashMapINSt7__cxx1112basic_stringIcSt11char_traitsIcESaIcEEES5_E3getERKS5_
FN:179,185,_ZNK7HashMapIiiE3getERKi
FN:188,191,_ZNK7HashMapINSt7__cxx1112basic_stringIcSt11char_traitsIcESaIcEEES5_E8containsERKS5_
FN:188,191,_ZNK7HashMapIibE8containsERKi
FN:194,202,_ZN7HashMapINSt7__cxx1112basic_stringIcSt11char_traitsIcESaIcEEES5_E6removeERKS5_
FN:194,202,_ZN7HashMapIibE6removeERKi
FN:205,210,_ZN7HashMapINSt7__cxx1112basic_stringIcSt11char_traitsIcESaIcEEES5_E5clearEv
FN:205,210,_ZN7HashMapIibE5clearEv
FN:213,215,_ZNK7HashMapINSt7__cxx1112basic_stringIcSt11char_traitsIcESaIcEEES5_E4sizeEv
FN:213,215,_ZNK7HashMapIibE4sizeEv
FN:218,220,_ZNK7HashMapINSt7__cxx1112basic_stringIcSt11char_traitsIcESaIcEEES5_E5emptyEv
FN:218,220,_ZNK7HashMapIibE5emptyEv
FN:223,232,_ZNK7HashMapINSt7__cxx1112basic_stringIcSt11char_traitsIcESaIcEEES5_E5printERSo
FN:264,279,_ZNK7HashMapINSt7__cxx1112basic_stringIcSt11char_traitsIcESaIcEEES5_E12saveToBinaryERSt14basic_ofstreamIcS3_E
FN:282,300,_ZN7HashMapINSt7__cxx1112basic_stringIcSt11char_traitsIcESaIcEEES5_E14loadFromBinaryERSt14basic_ifstreamIcS3_E
FN:304,304,_ZN13CuckooHashMapINSt7__cxx1112basic_stringIcSt11char_traitsIcESaIcEEEiE5EntryC2Ev
FN:307,307,_ZN13CuckooHashMapINSt7__cxx1112basic_stringIcSt11char_traitsIcESaIcEEEiE5EntryC2ERKS5_RKi
FN:310,314,_ZN13CuckooHashMapINSt7__cxx1112basic_stringIcSt11char_traitsIcESaIcEEEiEC2Em
FN:317,320,_ZNK13CuckooHashMapINSt7__cxx1112basic_stringIcSt11char_traitsIcESaIcEEEiE5hash1ERKS5_
FN:323,326,_ZNK13CuckooHashMapINSt7__cxx1112basic_stringIcSt11char_traitsIcESaIcEEEiE5hash2ERKS5_
FN:329,367,_ZN13CuckooHashMapINSt7__cxx1112basic_stringIcSt11char_traitsIcESaIcEEEiE14insertInternalERKS5_RKii
FN:370,390,_ZN13CuckooHashMapINSt7__cxx1112basic_stringIcSt11char_traitsIcESaIcEEEiE3putERKS5_RKi
FN:393,404,_ZNK13CuckooHashMapINSt7__cxx1112basic_stringIcSt11char_traitsIcESaIcEEEiE3getERKS5_
FN:407,413,_ZNK13CuckooHashMapINSt7__cxx1112basic_stringIcSt11char_traitsIcESaIcEEEiE8containsERKS5_
FN:416,431,_ZN13CuckooHashMapINSt7__cxx1112basic_stringIcSt11char_traitsIcESaIcEEEiE6removeERKS5_
FN:434,442,_ZN13CuckooHashMapINSt7__cxx1112basic_stringIcSt11char_traitsIcESaIcEEEiE5clearEv
FN:445,447,_ZNK13CuckooHashMapINSt7__cxx1112basic_stringIcSt11char_traitsIcESaIcEEEiE4sizeEv
FN:450,452,_ZNK13CuckooHashMapINSt7__cxx1112basic_stringIcSt11char_traitsIcESaIcEEEiE5emptyEv
FN:455,469,_ZNK13CuckooHashMapINSt7__cxx1112basic_stringIcSt11char_traitsIcESaIcEEEiE5printERSo
FN:474,474,_ZN3SetIiEC2Em
FN:477,479,_ZN3SetIiE3addERKi
FN:482,484,_ZNK3SetIiE8containsERKi
FN:487,489,_ZN3SetIiE6removeERKi
FN:492,494,_ZN3SetIiE5clearEv
FN:497,499,_ZNK3SetIiE4sizeEv
FN:502,504,_ZNK3SetIiE5emptyEv
FN:507,509,_ZNK3SetIiE5printERSo
FNDA:4848,_ZN7HashMapINSt7__cxx1112basic_stringIcSt11char_traitsIcESaIcEEES5_E5EntryC2Ev
FNDA:2727,_ZN7HashMapIibE5EntryC2Ev
FNDA:303,_ZN7HashMapIiiE5EntryC2Ev
FNDA:213,_ZN7HashMapINSt7__cxx1112basic_stringIcSt11char_traitsIcESaIcEEES5_E5EntryC2ERKS5_S9_
FNDA:42,_ZN7HashMapIibE5EntryC2ERKiRKb
FNDA:9,_ZN7HashMapIiiE5EntryC2ERKiS3_
FNDA:48,_ZN7HashMapINSt7__cxx1112basic_stringIcSt11char_traitsIcESaIcEEES5_EC2Em
FNDA:27,_ZN7HashMapIibEC2Em
FNDA:3,_ZN7HashMapIiiEC2Em
FNDA:423,_ZNK7HashMapINSt7__cxx1112basic_stringIcSt11char_traitsIcESaIcEEES5_E5hash1ERKS5_
FNDA:72,_ZNK7HashMapIibE5hash1ERKi
FNDA:18,_ZNK7HashMapIiiE5hash1ERKi
FNDA:423,_ZNK7HashMapINSt7__cxx1112basic_stringIcSt11char_traitsIcESaIcEEES5_E5hash2ERKS5_
FNDA:72,_ZNK7HashMapIibE5hash2ERKi
FNDA:18,_ZNK7HashMapIiiE5hash2ERKi
FNDA:423,_ZNK7HashMapINSt7__cxx1112basic_stringIcSt11char_traitsIcESaIcEEES5_E9findIndexERKS5_Rm
FNDA:72,_ZNK7HashMapIibE9findIndexERKiRm
FNDA:18,_ZNK7HashMapIiiE9findIndexERKiRm
FNDA:216,_ZN7HashMapINSt7__cxx1112basic_stringIcSt11char_traitsIcESaIcEEES5_E3putERKS5_S8_
FNDA:45,_ZN7HashMapIibE3putERKiRKb
FNDA:9,_ZN7HashMapIiiE3putERKiS2_
FNDA:180,_ZNK7HashMapINSt7__cxx1112basic_stringIcSt11char_traitsIcESaIcEEES5_E3getERKS5_
FNDA:9,_ZNK7HashMapIiiE3getERKi
FNDA:15,_ZNK7HashMapINSt7__cxx1112basic_stringIcSt11char_traitsIcESaIcEEES5_E8containsERKS5_
FNDA:21,_ZNK7HashMapIibE8containsERKi
FNDA:12,_ZN7HashMapINSt7__cxx1112basic_stringIcSt11char_traitsIcESaIcEEES5_E6removeERKS5_
FNDA:6,_ZN7HashMapIibE6removeERKi
FNDA:6,_ZN7HashMapINSt7__cxx1112basic_stringIcSt11char_traitsIcESaIcEEES5_E5clearEv
FNDA:3,_ZN7HashMapIibE5clearEv
FNDA:27,_ZNK7HashMapINSt7__cxx1112basic_stringIcSt11char_traitsIcESaIcEEES5_E4sizeEv
FNDA:24,_ZNK7HashMapIibE4sizeEv
FNDA:6,_ZNK7HashMapINSt7__cxx1112basic_stringIcSt11char_traitsIcESaIcEEES5_E5emptyEv
FNDA:9,_ZNK7HashMapIibE5emptyEv
FNDA:3,_ZNK7HashMapINSt7__cxx1112basic_stringIcSt11char_traitsIcESaIcEEES5_E5printERSo
FNDA:3,_ZNK7HashMapINSt7__cxx1112basic_stringIcSt11char_traitsIcESaIcEEES5_E12saveToBinaryERSt14basic_ofstreamIcS3_E
FNDA:3,_ZN7HashMapINSt7__cxx1112basic_stringIcSt11char_traitsIcESaIcEEES5_E14loadFromBinaryERSt14basic_ifstreamIcS3_E
FNDA:6060,_ZN13CuckooHashMapINSt7__cxx1112basic_stringIcSt11char_traitsIcESaIcEEEiE5EntryC2Ev
FNDA:66,_ZN13CuckooHashMapINSt7__cxx1112basic_stringIcSt11char_traitsIcESaIcEEEiE5EntryC2ERKS5_RKi
FNDA:30,_ZN13CuckooHashMapINSt7__cxx1112basic_stringIcSt11char_traitsIcESaIcEEEiEC2Em
FNDA:192,_ZNK13CuckooHashMapINSt7__cxx1112basic_stringIcSt11char_traitsIcESaIcEEEiE5hash1ERKS5_
FNDA:132,_ZNK13CuckooHashMapINSt7__cxx1112basic_stringIcSt11char_traitsIcESaIcEEEiE5hash2ERKS5_
FNDA:63,_ZN13CuckooHashMapINSt7__cxx1112basic_stringIcSt11char_traitsIcESaIcEEEiE14insertInternalERKS5_RKii
FNDA:66,_ZN13CuckooHashMapINSt7__cxx1112basic_stringIcSt11char_traitsIcESaIcEEEiE3putERKS5_RKi
FNDA:45,_ZNK13CuckooHashMapINSt7__cxx1112basic_stringIcSt11char_traitsIcESaIcEEEiE3getERKS5_
FNDA:75,_ZNK13CuckooHashMapINSt7__cxx1112basic_stringIcSt11char_traitsIcESaIcEEEiE8containsERKS5_
FNDA:6,_ZN13CuckooHashMapINSt7__cxx1112basic_stringIcSt11char_traitsIcESaIcEEEiE6removeERKS5_
FNDA:3,_ZN13CuckooHashMapINSt7__cxx1112basic_stringIcSt11char_traitsIcESaIcEEEiE5clearEv
FNDA:18,_ZNK13CuckooHashMapINSt7__cxx1112basic_stringIcSt11char_traitsIcESaIcEEEiE4sizeEv
FNDA:6,_ZNK13CuckooHashMapINSt7__cxx1112basic_stringIcSt11char_traitsIcESaIcEEEiE5emptyEv
FNDA:3,_ZNK13CuckooHashMapINSt7__cxx1112basic_stringIcSt11char_traitsIcESaIcEEEiE5printERSo
FNDA:27,_ZN3SetIiEC2Em
FNDA:45,_ZN3SetIiE3addERKi
FNDA:21,_ZNK3SetIiE8containsERKi
FNDA:6,_ZN3SetIiE6removeERKi
FNDA:3,_ZN3SetIiE5clearEv
FNDA:24,_ZNK3SetIiE4sizeEv
FNDA:9,_ZNK3SetIiE5emptyEv
FNDA:3,_ZNK3SetIiE5printERSo
FNF:58
FNH:58
DA:121,7878
DA:124,264
DA:127,78
DA:128,78
DA:129,78
DA:130,78
DA:133,513
DA:135,513
DA:139,513
DA:141,513
DA:142,513
DA:146,513
DA:147,513
DA:148,513
DA:149,513
DA:151,633
DA:152,633
DA:153,291
DA:155,342
DA:156,222
DA:158,120
DA:160,0
DA:164,270
DA:165,270
DA:166,0
DA:169,270
DA:170,270
DA:171,6
DA:173,264
DA:174,264
DA:176,270
DA:179,189
DA:181,189
DA:182,372
DA:184,3
DA:188,36
DA:190,72
DA:194,18
DA:196,18
DA:197,9
DA:198,9
DA:199,9
DA:201,9
DA:205,9
DA:206,918
DA:207,909
DA:209,9
DA:210,9
DA:213,51
DA:214,51
DA:218,15
DA:219,15
DA:223,3
DA:224,3
DA:225,306
DA:226,303
DA:227,6
DA:228,6
DA:231,3
DA:232,3
DA:264,3
DA:265,3
DA:266,3
DA:268,306
DA:269,303
DA:270,9
DA:271,9
DA:272,9
DA:274,9
DA:275,9
DA:276,9
DA:279,3
DA:282,3
DA:283,3
DA:285,3
DA:287,12
DA:289,9
DA:290,9
DA:291,9
DA:294,9
DA:295,9
DA:296,9
DA:298,9
DA:299,9
DA:300,3
DA:304,6060
DA:307,66
DA:310,30
DA:311,30
DA:312,30
DA:313,30
DA:314,30
DA:317,192
DA:319,192
DA:323,132
DA:325,132
DA:329,63
DA:330,63
DA:331,0
DA:334,63
DA:336,63
DA:337,60
DA:338,60
DA:341,3
DA:342,0
DA:343,0
DA:346,3
DA:347,3
DA:348,3
DA:350,3
DA:352,3
DA:353,3
DA:354,3
DA:357,0
DA:358,0
DA:359,0
DA:362,0
DA:363,0
DA:364,0
DA:366,0
DA:367,3
DA:370,66
DA:371,66
DA:372,0
DA:375,66
DA:376,3
DA:377,3
DA:379,3
DA:380,3
DA:381,0
DA:382,0
DA:384,3
DA:387,63
DA:388,63
DA:393,45
DA:394,45
DA:395,45
DA:397,45
DA:398,42
DA:400,3
DA:401,3
DA:403,0
DA:407,75
DA:408,75
DA:409,75
DA:411,144
DA:412,144
DA:416,6
DA:417,6
DA:418,6
DA:420,6
DA:421,3
DA:422,3
DA:423,3
DA:425,3
DA:426,0
DA:427,0
DA:428,0
DA:430,3
DA:434,3
DA:435,306
DA:436,303
DA:438,306
DA:439,303
DA:441,3
DA:442,3
DA:445,18
DA:446,18
DA:450,6
DA:451,6
DA:455,3
DA:456,3
DA:457,306
DA:458,303
DA:459,3
DA:462,3
DA:463,306
DA:464,303
DA:465,0
DA:468,3
DA:469,3
DA:474,27
DA:477,45
DA:478,45
DA:479,45
DA:482,21
DA:483,21
DA:487,6
DA:488,6
DA:492,3
DA:493,3
DA:494,3
DA:497,24
DA:498,24
DA:502,9
DA:503,9
DA:507,3
DA:508,3
DA:509,3
LF:199
LH:179
end_of_record
TN:
SF:/home/shuballity/proj/prog_study/2grade/labs/lab3/src/containers/linear.h
FN:105,107,_ZN5ArrayINSt7__cxx1112basic_stringIcSt11char_traitsIcESaIcEEEE5clearEv
FN:109,111,_ZNK5ArrayINSt7__cxx1112basic_stringIcSt11char_traitsIcESaIcEEEE4sizeEv
FN:113,115,_ZNK5ArrayINSt7__cxx1112basic_stringIcSt11char_traitsIcESaIcEEEE5emptyEv
FN:117,124,_ZNK5ArrayINSt7__cxx1112basic_stringIcSt11char_traitsIcESaIcEEEE5printERSo
FN:148,157,_ZNK5ArrayINSt7__cxx1112basic_stringIcSt11char_traitsIcESaIcEEEE12saveToBinaryERSt14basic_ofstreamIcS3_E
FN:160,172,_ZN5ArrayINSt7__cxx1112basic_stringIcSt11char_traitsIcESaIcEEEE14loadFromBinaryERSt14basic_ifstreamIcS3_E
FN:18,26,_ZN5ArrayINSt7__cxx1112basic_stringIcSt11char_traitsIcESaIcEEEE6resizeEv
FN:227,227,_ZN5StackINSt7__cxx1112basic_stringIcSt11char_traitsIcESaIcEEEE4NodeC2ERKS5_
FN:232,232,_ZN5StackINSt7__cxx1112basic_stringIcSt11char_traitsIcESaIcEEEEC2Ev
FN:234,236,_ZN5StackINSt7__cxx1112basic_stringIcSt11char_traitsIcESaIcEEEED0Ev
FN:234,236,_ZN5StackINSt7__cxx1112basic_stringIcSt11char_traitsIcESaIcEEEED2Ev
FN:257,262,_ZN5StackINSt7__cxx1112basic_stringIcSt11char_traitsIcESaIcEEEE4pushERKS5_
FN:264,274,_ZN5StackINSt7__cxx1112basic_stringIcSt11char_traitsIcESaIcEEEE3popEv
FN:276,281,_ZNK5StackINSt7__cxx1112basic_stringIcSt11char_traitsIcESaIcEEEE4peekEv
FN:283,290,_ZN5StackINSt7__cxx1112basic_stringIcSt11char_traitsIcESaIcEEEE5clearEv
FN:29,32,_ZN5ArrayINSt7__cxx1112basic_stringIcSt11char_traitsIcESaIcEEEEC2Em
FN:292,294,_ZNK5StackINSt7__cxx1112basic_stringIcSt11char_traitsIcESaIcEEEE4sizeEv
FN:296,298,_ZNK5StackINSt7__cxx1112basic_stringIcSt11char_traitsIcESaIcEEEE5emptyEv
FN:300,309,_ZNK5StackINSt7__cxx1112basic_stringIcSt11char_traitsIcESaIcEEEE5printERSo
FN:34,36,_ZN5ArrayINSt7__cxx1112basic_stringIcSt11char_traitsIcESaIcEEEED0Ev
FN:34,36,_ZN5ArrayINSt7__cxx1112basic_stringIcSt11char_traitsIcESaIcEEEED2Ev
FN:348,364,_ZNK5StackINSt7__cxx1112basic_stringIcSt11char_traitsIcESaIcEEEE12saveToBinaryERSt14basic_ofstreamIcS3_E
FN:367,384,_ZN5StackINSt7__cxx1112basic_stringIcSt11char_traitsIcESaIcEEEE14loadFromBinaryERSt14basic_ifstreamIcS3_E
FN:392,392,_ZN5QueueINSt7__cxx1112basic_stringIcSt11char_traitsIcESaIcEEEE4NodeC2ERKS5_
FN:398,398,_ZN5QueueINSt7__cxx1112basic_stringIcSt11char_traitsIcESaIcEEEEC2Ev
FN:400,402,_ZN5QueueINSt7__cxx1112basic_stringIcSt11char_traitsIcESaIcEEEED0Ev
FN:400,402,_ZN5QueueINSt7__cxx1112basic_stringIcSt11char_traitsIcESaIcEEEED2Ev
FN:426,435,_ZN5QueueINSt7__cxx1112basic_stringIcSt11char_traitsIcESaIcEEEE7enqueueERKS5_
FN:437,450,_ZN5QueueINSt7__cxx1112basic_stringIcSt11char_traitsIcESaIcEEEE7dequeueEv
FN:452,457,_ZNK5QueueINSt7__cxx1112basic_stringIcSt11char_traitsIcESaIcEEEE4peekEv
FN:459,467,_ZN5QueueINSt7__cxx1112basic_stringIcSt11char_traitsIcESaIcEEEE5clearEv
FN:469,471,_ZNK5QueueINSt7__cxx1112basic_stringIcSt11char_traitsIcESaIcEEEE4sizeEv
FN:473,475,_ZNK5QueueINSt7__cxx1112basic_stringIcSt11char_traitsIcESaIcEEEE5emptyEv
FN:477,486,_ZNK5QueueINSt7__cxx1112basic_stringIcSt11char_traitsIcESaIcEEEE5printERSo
FN:515,526,_ZNK5QueueINSt7__cxx1112basic_stringIcSt11char_traitsIcESaIcEEEE12saveToBinaryERSt14basic_ofstreamIcS3_E
FN:529,541,_ZN5QueueINSt7__cxx1112basic_stringIcSt11char_traitsIcESaIcEEEE14loadFromBinaryERSt14basic_ifstreamIcS3_E
FN:60,65,_ZN5ArrayINSt7__cxx1112basic_stringIcSt11char_traitsIcESaIcEEEE4pushERKS5_
FN:67,72,_ZNK5ArrayINSt7__cxx1112basic_stringIcSt11char_traitsIcESaIcEEEE3getEm
FN:74,86,_ZN5ArrayINSt7__cxx1112basic_stringIcSt11char_traitsIcESaIcEEEE6insertEmRKS5_
FN:88,96,_ZN5ArrayINSt7__cxx1112basic_stringIcSt11char_traitsIcESaIcEEEE6removeEm
FN:98,103,_ZN5ArrayINSt7__cxx1112basic_stringIcSt11char_traitsIcESaIcEEEE7replaceEmRKS5_
FNDA:6,_ZN5ArrayINSt7__cxx1112basic_stringIcSt11char_traitsIcESaIcEEEE5clearEv
FNDA:30,_ZNK5ArrayINSt7__cxx1112basic_stringIcSt11char_traitsIcESaIcEEEE4sizeEv
FNDA:9,_ZNK5ArrayINSt7__cxx1112basic_stringIcSt11char_traitsIcESaIcEEEE5emptyEv
FNDA:3,_ZNK5ArrayINSt7__cxx1112basic_stringIcSt11char_traitsIcESaIcEEEE5printERSo
FNDA:3,_ZNK5ArrayINSt7__cxx1112basic_stringIcSt11char_traitsIcESaIcEEEE12saveToBinaryERSt14basic_ofstreamIcS3_E
FNDA:3,_ZN5ArrayINSt7__cxx1112basic_stringIcSt11char_traitsIcESaIcEEEE14loadFromBinaryERSt14basic_ifstreamIcS3_E
FNDA:12,_ZN5ArrayINSt7__cxx1112basic_stringIcSt11char_traitsIcESaIcEEEE6resizeEv
FNDA:387,_ZN5StackINSt7__cxx1112basic_stringIcSt11char_traitsIcESaIcEEEE4NodeC2ERKS5_
FNDA:36,_ZN5StackINSt7__cxx1112basic_stringIcSt11char_traitsIcESaIcEEEEC2Ev
FNDA:33,_ZN5StackINSt7__cxx1112basic_stringIcSt11char_traitsIcESaIcEEEED0Ev
FNDA:36,_ZN5StackINSt7__cxx1112basic_stringIcSt11char_traitsIcESaIcEEEED2Ev
FNDA:387,_ZN5StackINSt7__cxx1112basic_stringIcSt11char_traitsIcESaIcEEEE4pushERKS5_
FNDA:201,_ZN5StackINSt7__cxx1112basic_stringIcSt11char_traitsIcESaIcEEEE3popEv
FNDA:6,_ZNK5StackINSt7__cxx1112basic_stringIcSt11char_traitsIcESaIcEEEE4peekEv
FNDA:42,_ZN5StackINSt7__cxx1112basic_stringIcSt11char_traitsIcESaIcEEEE5clearEv
FNDA:42,_ZN5ArrayINSt7__cxx1112basic_stringIcSt11char_traitsIcESaIcEEEEC2Em
FNDA:27,_ZNK5StackINSt7__cxx1112basic_stringIcSt11char_traitsIcESaIcEEEE4sizeEv
FNDA:12,_ZNK5StackINSt7__cxx1112basic_stringIcSt11char_traitsIcESaIcEEEE5emptyEv
FNDA:3,_ZNK5StackINSt7__cxx1112basic_stringIcSt11char_traitsIcESaIcEEEE5printERSo
FNDA:39,_ZN5ArrayINSt7__cxx1112basic_stringIcSt11char_traitsIcESaIcEEEED0Ev
FNDA:42,_ZN5ArrayINSt7__cxx1112basic_stringIcSt11char_traitsIcESaIcEEEED2Ev
FNDA:3,_ZNK5StackINSt7__cxx1112basic_stringIcSt11char_traitsIcESaIcEEEE12saveToBinaryERSt14basic_ofstreamIcS3_E
FNDA:3,_ZN5StackINSt7__cxx1112basic_stringIcSt11char_traitsIcESaIcEEEE14loadFromBinaryERSt14basic_ifstreamIcS3_E
FNDA:312,_ZN5QueueINSt7__cxx1112basic_stringIcSt11char_traitsIcESaIcEEEE4NodeC2ERKS5_
FNDA:36,_ZN5QueueINSt7__cxx1112basic_stringIcSt11char_traitsIcESaIcEEEEC2Ev
FNDA:33,_ZN5QueueINSt7__cxx1112basic_stringIcSt11char_traitsIcESaIcEEEED0Ev
FNDA:36,_ZN5QueueINSt7__cxx1112basic_stringIcSt11char_traitsIcESaIcEEEED2Ev
FNDA:312,_ZN5QueueINSt7__cxx1112basic_stringIcSt11char_traitsIcESaIcEEEE7enqueueERKS5_
FNDA:126,_ZN5QueueINSt7__cxx1112basic_stringIcSt11char_traitsIcESaIcEEEE7dequeueEv
FNDA:6,_ZNK5QueueINSt7__cxx1112basic_stringIcSt11char_traitsIcESaIcEEEE4peekEv
FNDA:42,_ZN5QueueINSt7__cxx1112basic_stringIcSt11char_traitsIcESaIcEEEE5clearEv
FNDA:30,_ZNK5QueueINSt7__cxx1112basic_stringIcSt11char_traitsIcESaIcEEEE4sizeEv
FNDA:12,_ZNK5QueueINSt7__cxx1112basic_stringIcSt11char_traitsIcESaIcEEEE5emptyEv
FNDA:3,_ZNK5QueueINSt7__cxx1112basic_stringIcSt11char_traitsIcESaIcEEEE5printERSo
FNDA:3,_ZNK5QueueINSt7__cxx1112basic_stringIcSt11char_traitsIcESaIcEEEE12saveToBinaryERSt14basic_ofstreamIcS3_E
FNDA:3,_ZN5QueueINSt7__cxx1112basic_stringIcSt11char_traitsIcESaIcEEEE14loadFromBinaryERSt14basic_ifstreamIcS3_E
FNDA:375,_ZN5ArrayINSt7__cxx1112basic_stringIcSt11char_traitsIcESaIcEEEE4pushERKS5_
FNDA:54,_ZNK5ArrayINSt7__cxx1112basic_stringIcSt11char_traitsIcESaIcEEEE3getEm
FNDA:9,_ZN5ArrayINSt7__cxx1112basic_stringIcSt11char_traitsIcESaIcEEEE6insertEmRKS5_
FNDA:153,_ZN5ArrayINSt7__cxx1112basic_stringIcSt11char_traitsIcESaIcEEEE6removeEm
FNDA:3,_ZN5ArrayINSt7__cxx1112basic_stringIcSt11char_traitsIcESaIcEEEE7replaceEmRKS5_
FNF:41
FNH:41
DA:18,12
DA:19,12
DA:20,912
DA:21,462
DA:22,450
DA:24,462
DA:25,12
DA:26,12
DA:29,42
DA:30,42
DA:31,462
DA:32,42
DA:34,81
DA:35,912
DA:36,123
DA:60,375
DA:61,375
DA:62,12
DA:64,375
DA:65,375
DA:67,54
DA:68,54
DA:69,6
DA:71,48
DA:74,9
DA:75,9
DA:76,0
DA:78,9
DA:79,0
DA:81,15
DA:82,6
DA:84,9
DA:85,9
DA:86,9
DA:88,153
DA:89,153
DA:90,0
DA:92,11331
DA:93,11178
DA:95,153
DA:96,153
DA:98,3
DA:99,3
DA:100,0
DA:102,3
DA:103,3
DA:105,6
DA:106,6
DA:107,6
DA:109,30
DA:110,30
DA:113,9
DA:114,9
DA:117,3
DA:118,3
DA:119,9
DA:120,6
DA:121,6
DA:123,3
DA:124,3
DA:148,3
DA:149,3
DA:150,3
DA:152,12
DA:153,9
DA:154,9
DA:155,9
DA:157,3
DA:160,3
DA:161,3
DA:163,3
DA:165,12
DA:167,9
DA:168,9
DA:169,9
DA:170,9
DA:171,9
DA:172,3
DA:227,387
DA:232,36
DA:234,69
DA:235,36
DA:236,69
DA:257,387
DA:258,387
DA:259,387
DA:260,387
DA:261,387
DA:262,387
DA:264,201
DA:265,201
DA:266,3
DA:268,198
DA:269,198
DA:270,198
DA:271,198
DA:272,198
DA:273,198
DA:276,6
DA:277,6
DA:278,3
DA:280,3
DA:283,42
DA:284,273
DA:285,189
DA:286,189
DA:287,189
DA:289,42
DA:290,42
DA:292,27
DA:293,27
DA:296,12
DA:297,12
DA:300,3
DA:301,3
DA:302,3
DA:303,12
DA:304,9
DA:305,9
DA:306,9
DA:308,3
DA:309,3
DA:348,3
DA:349,3
DA:350,3
DA:352,3
DA:353,3
DA:354,12
DA:355,9
DA:356,9
DA:359,12
DA:360,9
DA:361,9
DA:362,9
DA:364,3
DA:367,3
DA:368,3
DA:370,3
DA:372,3
DA:373,12
DA:375,9
DA:376,9
DA:377,9
DA:378,9
DA:379,9
DA:381,12
DA:382,9
DA:384,3
DA:392,312
DA:398,36
DA:400,69
DA:401,36
DA:402,69
DA:426,312
DA:427,312
DA:428,312
DA:429,27
DA:431,285
DA:432,285
DA:434,312
DA:435,312
DA:437,126
DA:438,126
DA:439,3
DA:441,123
DA:442,123
DA:443,123
DA:444,123
DA:445,9
DA:447,123
DA:448,123
DA:449,123
DA:452,6
DA:453,6
DA:454,3
DA:456,3
DA:459,42
DA:460,273
DA:461,189
DA:462,189
DA:463,189
DA:465,42
DA:466,42
DA:467,42
DA:469,30
DA:470,30
DA:473,12
DA:474,12
DA:477,3
DA:478,3
DA:479,3
DA:480,12
DA:481,9
DA:482,9
DA:483,9
DA:485,3
DA:486,3
DA:515,3
DA:516,3
DA:517,3
DA:519,3
DA:520,12
DA:521,9
DA:522,9
DA:523,9
DA:524,9
DA:526,3
DA:529,3
DA:530,3
DA:532,3
DA:534,12
DA:536,9
DA:537,9
DA:538,9
DA:539,9
DA:540,9
DA:541,3
LF:217
LH:213
end_of_record
TN:
SF:/home/shuballity/proj/prog_study/2grade/labs/lab3/src/containers/singlelist.cpp
FN:11,13,_ZN10SingleListIiED0Ev
FN:11,13,_ZN10SingleListIiED2Ev
FN:16,21,_ZN10SingleListIiE7addHeadERKi
FN:24,36,_ZN10SingleListIiE7addTailERKi
FN:39,62,_ZN10SingleListIiE6removeERKi
FN:5,5,_ZN10SingleListIiE4NodeC2ERKi
FN:65,74,_ZNK10SingleListIiE8containsERKi
FN:77,84,_ZN10SingleListIiE5clearEv
FN:8,8,_ZN10SingleListIiEC2Ev
FN:87,89,_ZNK10SingleListIiE4sizeEv
FN:92,94,_ZNK10SingleListIiE5emptyEv
FN:97,106,_ZNK10SingleListIiE5printERSo
FNDA:33,_ZN10SingleListIiED0Ev
FNDA:33,_ZN10SingleListIiED2Ev
FNDA:12,_ZN10SingleListIiE7addHeadERKi
FNDA:60,_ZN10SingleListIiE7addTailERKi
FNDA:12,_ZN10SingleListIiE6removeERKi
FNDA:72,_ZN10SingleListIiE4NodeC2ERKi
FNDA:30,_ZNK10SingleListIiE8containsERKi
FNDA:36,_ZN10SingleListIiE5clearEv
FNDA:33,_ZN10SingleListIiEC2Ev
FNDA:27,_ZNK10SingleListIiE4sizeEv
FNDA:9,_ZNK10SingleListIiE5emptyEv
FNDA:3,_ZNK10SingleListIiE5printERSo
FNF:12
FNH:12
DA:5,72
DA:8,33
DA:11,66
DA:12,33
DA:13,66
DA:16,12
DA:17,12
DA:18,12
DA:19,12
DA:20,12
DA:21,12
DA:24,60
DA:25,60
DA:26,60
DA:27,24
DA:29,36
DA:30,51
DA:31,15
DA:33,36
DA:35,60
DA:36,60
DA:39,12
DA:40,12
DA:42,12
DA:43,3
DA:44,3
DA:45,3
DA:46,3
DA:47,3
DA:50,9
DA:51,12
DA:52,9
DA:53,6
DA:54,6
DA:55,6
DA:56,6
DA:57,6
DA:59,3
DA:61,3
DA:65,30
DA:66,30
DA:67,57
DA:68,48
DA:69,21
DA:71,27
DA:73,9
DA:77,36
DA:78,135
DA:79,63
DA:80,63
DA:81,63
DA:83,36
DA:84,36
DA:87,27
DA:88,27
DA:92,9
DA:93,9
DA:97,3
DA:98,3
DA:99,3
DA:100,12
DA:101,9
DA:102,9
DA:103,9
DA:105,3
DA:106,3
LF:66
LH:66
end_of_record
