TN:
SF:/home/shuballity/proj/prog_study/2grade/labs/lab3/src/containers/avl.cpp
FN:10,11,_ZN7AVLTreeIiE4NodeC2ERKi
FN:109,114,_ZNK7AVLTreeIiE7findMinEPNS0_4NodeE
FN:117,146,_ZN7AVLTreeIiE10deleteNodeEPNS0_4NodeERKi
FN:14,14,_ZN7AVLTreeIiEC2Ev
FN:149,157,_ZNK7AVLTreeIiE10searchNodeEPNS0_4NodeERKi
FN:160,165,_ZN7AVLTreeIiE9clearNodeEPNS0_4NodeE
FN:168,173,_ZNK7AVLTreeIiE16inorderTraversalEPNS0_4NodeERSo
FN:17,19,_ZN7AVLTreeIiED0Ev
FN:17,19,_ZN7AVLTreeIiED2Ev
FN:176,178,_ZN7AVLTreeIiE6insertERKi
FN:181,183,_ZN7AVLTreeIiE6removeERKi
FN:186,188,_ZNK7AVLTreeIiE6searchERKi
FN:191,195,_ZN7AVLTreeIiE5clearEv
FN:198,200,_ZNK7AVLTreeIiE4sizeEv
FN:203,205,_ZNK7AVLTreeIiE5emptyEv
FN:208,210,_ZNK7AVLTreeIiE6heightEv
FN:213,217,_ZNK7AVLTreeIiE5printERSo
FN:22,24,_ZNK7AVLTreeIiE9getHeightEPNS0_4NodeE
FN:27,29,_ZNK7AVLTreeIiE10getBalanceEPNS0_4NodeE
FN:313,326,_ZNK7AVLTreeIiE14saveBinaryNodeERSt14basic_ofstreamIcSt11char_traitsIcEEPNS0_4NodeE
FN:32,36,_ZN7AVLTreeIiE12updateHeightEPNS0_4NodeE
FN:329,347,_ZN7AVLTreeIiE14loadBinaryNodeERSt14basic_ifstreamIcSt11char_traitsIcEE
FN:350,354,_ZNK7AVLTreeIiE12saveToBinaryERSt14basic_ofstreamIcSt11char_traitsIcEE
FN:357,363,_ZN7AVLTreeIiE14loadFromBinaryERSt14basic_ifstreamIcSt11char_traitsIcEE
FN:39,50,_ZN7AVLTreeIiE11rotateRightEPNS0_4NodeE
FN:53,64,_ZN7AVLTreeIiE10rotateLeftEPNS0_4NodeE
FN:67,87,_ZN7AVLTreeIiE9rebalanceEPNS0_4NodeE
FN:90,106,_ZN7AVLTreeIiE10insertNodeEPNS0_4NodeERKi
FNDA:501,_ZN7AVLTreeIiE4NodeC2ERKi
FNDA:3,_ZNK7AVLTreeIiE7findMinEPNS0_4NodeE
FNDA:822,_ZN7AVLTreeIiE10deleteNodeEPNS0_4NodeERKi
FNDA:63,_ZN7AVLTreeIiEC2Ev
FNDA:2796,_ZNK7AVLTreeIiE10searchNodeEPNS0_4NodeERKi
FNDA:747,_ZN7AVLTreeIiE9clearNodeEPNS0_4NodeE
FNDA:21,_ZNK7AVLTreeIiE16inorderTraversalEPNS0_4NodeERSo
FNDA:60,_ZN7AVLTreeIiED0Ev
FNDA:63,_ZN7AVLTreeIiED2Ev
FNDA:483,_ZN7AVLTreeIiE6insertERKi
FNDA:168,_ZN7AVLTreeIiE6removeERKi
FNDA:594,_ZNK7AVLTreeIiE6searchERKi
FNDA:69,_ZN7AVLTreeIiE5clearEv
FNDA:54,_ZNK7AVLTreeIiE4sizeEv
FNDA:6,_ZNK7AVLTreeIiE5emptyEv
FNDA:3,_ZNK7AVLTreeIiE6heightEv
FNDA:3,_ZNK7AVLTreeIiE5printERSo
FNDA:12921,_ZNK7AVLTreeIiE9getHeightEPNS0_4NodeE
FNDA:3030,_ZNK7AVLTreeIiE10getBalanceEPNS0_4NodeE
FNDA:45,_ZNK7AVLTreeIiE14saveBinaryNodeERSt14basic_ofstreamIcSt11char_traitsIcEEPNS0_4NodeE
FNDA:3429,_ZN7AVLTreeIiE12updateHeightEPNS0_4NodeE
FNDA:45,_ZN7AVLTreeIiE14loadBinaryNodeERSt14basic_ifstreamIcSt11char_traitsIcEE
FNDA:3,_ZNK7AVLTreeIiE12saveToBinaryERSt14basic_ofstreamIcSt11char_traitsIcEE
FNDA:3,_ZN7AVLTreeIiE14loadFromBinaryERSt14basic_ifstreamIcSt11char_traitsIcEE
FNDA:12,_ZN7AVLTreeIiE11rotateRightEPNS0_4NodeE
FNDA:360,_ZN7AVLTreeIiE10rotateLeftEPNS0_4NodeE
FNDA:2664,_ZN7AVLTreeIiE9rebalanceEPNS0_4NodeE
FNDA:2418,_ZN7AVLTreeIiE10insertNodeEPNS0_4NodeERKi
FNF:28
FNH:28
DA:10,501
DA:11,501
DA:14,63
DA:17,123
DA:18,63
DA:19,123
DA:22,12921
DA:23,12921
DA:27,3030
DA:28,3030
DA:32,3429
DA:33,3429
DA:34,3429
DA:36,3429
DA:39,12
DA:40,12
DA:41,12
DA:43,12
DA:44,12
DA:46,12
DA:47,12
DA:49,12
DA:53,360
DA:54,360
DA:55,360
DA:57,360
DA:58,360
DA:60,360
DA:61,360
DA:63,360
DA:67,2664
DA:68,2664
DA:70,2664
DA:72,2664
DA:73,9
DA:74,3
DA:76,9
DA:79,2655
DA:80,357
DA:81,3
DA:83,357
DA:86,2298
DA:90,2418
DA:91,2418
DA:92,480
DA:93,480
DA:96,1938
DA:97,117
DA:98,1821
DA:99,1818
DA:101,3
DA:104,1935
DA:105,1935
DA:109,3
DA:110,3
DA:111,0
DA:113,3
DA:117,822
DA:118,822
DA:120,816
DA:121,645
DA:122,171
DA:123,6
DA:125,165
DA:126,162
DA:127,162
DA:128,87
DA:129,87
DA:131,75
DA:133,162
DA:134,162
DA:135,162
DA:136,3
DA:137,3
DA:138,3
DA:142,816
DA:144,729
DA:145,729
DA:149,2796
DA:150,2796
DA:151,2784
DA:152,2202
DA:153,1134
DA:155,1068
DA:160,747
DA:161,747
DA:162,339
DA:163,339
DA:164,339
DA:168,21
DA:169,21
DA:170,9
DA:171,9
DA:172,9
DA:176,483
DA:177,483
DA:178,483
DA:181,168
DA:182,168
DA:183,168
DA:186,594
DA:187,594
DA:191,69
DA:192,69
DA:193,69
DA:194,69
DA:195,69
DA:198,54
DA:199,54
DA:203,6
DA:204,6
DA:208,3
DA:209,3
DA:213,3
DA:214,3
DA:215,3
DA:216,3
DA:217,3
DA:313,45
DA:314,45
DA:315,24
DA:316,24
DA:317,24
DA:320,21
DA:321,21
DA:322,21
DA:324,21
DA:325,21
DA:329,45
DA:331,45
DA:333,45
DA:334,24
DA:338,21
DA:340,21
DA:341,21
DA:342,21
DA:344,21
DA:346,21
DA:350,3
DA:351,3
DA:352,3
DA:353,3
DA:354,3
DA:357,3
DA:358,3
DA:360,3
DA:361,3
DA:362,3
DA:363,3
LF:149
LH:148
end_of_record
TN:
SF:/home/shuballity/proj/prog_study/2grade/labs/lab3/src/containers/containers.h
FN:13,13,_ZN9ContainerINSt7__cxx1112basic_stringIcSt11char_traitsIcESaIcEEEED0Ev
FN:13,13,_ZN9ContainerINSt7__cxx1112basic_stringIcSt11char_traitsIcESaIcEEEED2Ev
FN:13,13,_ZN9ContainerIiED0Ev
FN:13,13,_ZN9ContainerIiED2Ev
FNDA:0,_ZN9ContainerINSt7__cxx1112basic_stringIcSt11char_traitsIcESaIcEEEED0Ev
FNDA:114,_ZN9ContainerINSt7__cxx1112basic_stringIcSt11char_traitsIcESaIcEEEED2Ev
FNDA:0,_ZN9ContainerIiED0Ev
FNDA:126,_ZN9ContainerIiED2Ev
FNF:4
FNH:2
DA:13,240
LF:1
LH:1
end_of_record
TN:
SF:/home/shuballity/proj/prog_study/2grade/labs/lab3/src/containers/doublelist.cpp
FN:11,13,_ZN10DoubleListIiED0Ev
FN:11,13,_ZN10DoubleListIiED2Ev
FN:16,26,_ZN10DoubleListIiE7addHeadERKi
FN:29,39,_ZN10DoubleListIiE7addTailERKi
FN:42,63,_ZN10DoubleListIiE6removeERKi
FN:5,5,_ZN10DoubleListIiE4NodeC2ERKi
FN:66,74,_ZN10DoubleListIiE5clearEv
FN:77,79,_ZNK10DoubleListIiE4sizeEv
FN:8,8,_ZN10DoubleListIiEC2Ev
FN:82,84,_ZNK10DoubleListIiE5emptyEv
FN:87,96,_ZNK10DoubleListIiE5printERSo
FNDA:30,_ZN10DoubleListIiED0Ev
FNDA:30,_ZN10DoubleListIiED2Ev
FNDA:12,_ZN10DoubleListIiE7addHeadERKi
FNDA:54,_ZN10DoubleListIiE7addTailERKi
FNDA:12,_ZN10DoubleListIiE6removeERKi
FNDA:66,_ZN10DoubleListIiE4NodeC2ERKi
FNDA:33,_ZN10DoubleListIiE5clearEv
FNDA:27,_ZNK10DoubleListIiE4sizeEv
FNDA:30,_ZN10DoubleListIiEC2Ev
FNDA:9,_ZNK10DoubleListIiE5emptyEv
FNDA:3,_ZNK10DoubleListIiE5printERSo
FNF:11
FNH:11
DA:5,66
DA:8,30
DA:11,60
DA:12,30
DA:13,60
DA:16,12
DA:17,12
DA:18,12
DA:19,6
DA:21,6
DA:22,6
DA:23,6
DA:25,12
DA:26,12
DA:29,54
DA:30,54
DA:31,54
DA:32,21
DA:34,33
DA:35,33
DA:36,33
DA:38,54
DA:39,54
DA:42,12
DA:43,12
DA:44,24
DA:45,21
DA:46,9
DA:47,6
DA:49,3
DA:51,9
DA:52,6
DA:54,3
DA:56,9
DA:57,9
DA:58,9
DA:60,12
DA:62,3
DA:66,33
DA:67,123
DA:68,57
DA:69,57
DA:70,57
DA:72,33
DA:73,33
DA:74,33
DA:77,27
DA:78,27
DA:82,9
DA:83,9
DA:87,3
DA:88,3
DA:89,3
DA:90,12
DA:91,9
DA:92,9
DA:93,9
DA:95,3
DA:96,3
LF:59
LH:59
end_of_record
TN:
SF:/home/shuballity/proj/prog_study/2grade/labs/lab3/src/containers/hash.h
FN:121,121,_ZN7HashMapINSt7__cxx1112basic_stringIcSt11char_traitsIcESaIcEEES5_E5EntryC2Ev
FN:121,121,_ZN7HashMapIibE5EntryC2Ev
FN:121,121,_ZN7HashMapIiiE5EntryC2Ev
FN:124,124,_ZN7HashMapINSt7__cxx1112basic_stringIcSt11char_traitsIcESaIcEEES5_E5EntryC2ERKS5_S9_
FN:124,124,_ZN7HashMapIibE5EntryC2ERKiRKb
FN:124,124,_ZN7HashMapIiiE5EntryC2ERKiS3_
FN:127,130,_ZN7HashMapINSt7__cxx1112basic_stringIcSt11char_traitsIcESaIcEEES5_EC2Em
FN:127,130,_ZN7HashMapIibEC2Em
FN:127,130,_ZN7HashMapIiiEC2Em
FN:133,136,_ZNK7HashMapINSt7__cxx1112basic_stringIcSt11char_traitsIcESaIcEEES5_E5hash1ERKS5_
FN:133,136,_ZNK7HashMapIibE5hash1ERKi
FN:133,136,_ZNK7HashMapIiiE5hash1ERKi
FN:139,143,_ZNK7HashMapINSt7__cxx1112basic_stringIcSt11char_traitsIcESaIcEEES5_E5hash2ERKS5_
FN:139,143,_ZNK7HashMapIibE5hash2ERKi
FN:139,143,_ZNK7HashMapIiiE5hash2ERKi
FN:146,161,_ZNK7HashMapINSt7__cxx1112basic_stringIcSt11char_traitsIcESaIcEEES5_E9findIndexERKS5_Rm
FN:146,161,_ZNK7HashMapIibE9findIndexERKiRm
FN:146,161,_ZNK7HashMapIiiE9findIndexERKiRm
FN:164,176,_ZN7HashMapINSt7__cxx1112basic_stringIcSt11char_traitsIcESaIcEEES5_E3putERKS5_S8_
FN:164,176,_ZN7HashMapIibE3putERKiRKb
FN:164,176,_ZN7HashMapIiiE3putERKiS2_
FN:179,185,_ZNK7HashMapINSt7__cxx1112basic_stringIcSt11char_traitsIcESaIcEEES5_E3getERKS5_
FN:179,185,_ZNK7HashMapIiiE3getERKi
FN:188,191,_ZNK7HashMapINSt7__cxx1112basic_stringIcSt11char_traitsIcESaIcEEES5_E8containsERKS5_
FN:188,191,_ZNK7HashMapIibE8containsERKi
FN:194,202,_ZN7HashMapINSt7__cxx1112basic_stringIcSt11char_traitsIcESaIcEEES5_E6removeERKS5_
FN:194,202,_ZN7HashMapIibE6removeERKi
FN:205,210,_ZN7HashMapINSt7__cxx1112basic_stringIcSt11char_traitsIcESaIcEEES5_E5clearEv
FN:205,210,_ZN7HashMapIibE5clearEv
FN:213,215,_ZNK7HashMapINSt7__cxx1112basic_stringIcSt11char_traitsIcESaIcEEES5_E4sizeEv
FN:213,215,_ZNK7HashMapIibE4sizeEv
FN:218,220,_ZNK7HashMapINSt7__cxx1112basic_stringIcSt11char_traitsIcESaIcEEES5_E5emptyEv
FN:218,220,_ZNK7HashMapIibE5emptyEv
FN:223,232,_ZNK7HashMapINSt7__cxx1112basic_stringIcSt11char_traitsIcESaIcEEES5_E5printERSo
FN:264,279,_ZNK7HashMapINSt7__cxx1112basic_stringIcSt11char_traitsIcESaIcEEES5_E12saveToBinaryERSt14basic_ofstreamIcS3_E
FN:282,300,_ZN7HashMapINSt7__cxx1112basic_stringIcSt11char_traitsIcESaIcEEES5_E14loadFromBinaryERSt14basic_ifstreamIcS3_E
FN:304,304,_ZN13CuckooHashMapINSt7__cxx1112basic_stringIcSt11char_traitsIcESaIcEEEiE5EntryC2Ev
FN:307,307,_ZN13CuckooHashMapINSt7__cxx1112basic_stringIcSt11char_traitsIcESaIcEEEiE5EntryC2ERKS5_RKi
FN:310,314,_ZN13CuckooHashMapINSt7__cxx1112basic_stringIcSt11char_traitsIcESaIcEEEiEC2Em
FN:317,320,_ZNK13CuckooHashMapINSt7__cxx1112basic_stringIcSt11char_traitsIcESaIcEEEiE5hash1ERKS5_
FN:323,326,_ZNK13CuckooHashMapINSt7__cxx1112basic_stringIcSt11char_traitsIcESaIcEEEiE5hash2ERKS5_
FN:329,367,_ZN13CuckooHashMapINSt7__cxx1112basic_stringIcSt11char_traitsIcESaIcEEEiE14insertInternalERKS5_RKii
FN:370,390,_ZN13CuckooHashMapINSt7__cxx1112basic_stringIcSt11char_traitsIcESaIcEEEiE3putERKS5_RKi
FN:393,404,_ZNK13CuckooHashMapINSt7__cxx1112basic_stringIcSt11char_traitsIcESaIcEEEiE3getERKS5_
FN:407,413,_ZNK13CuckooHashMapINSt7__cxx1112basic_stringIcSt11char_traitsIcESaIcEEEiE8containsERKS5_
FN:416,431,_ZN13CuckooHashMapINSt7__cxx1112basic_stringIcSt11char_traitsIcESaIcEEEiE6removeERKS5_
FN:434,442,_ZN13CuckooHashMapINSt7__cxx1112basic_stringIcSt11char_traitsIcESaIcEEEiE5clearEv
FN:445,447,_ZNK13CuckooHashMapINSt7__cxx1112basic_stringIcSt11char_traitsIcESaIcEEEiE4sizeEv
FN:450,452,_ZNK13CuckooHashMapINSt7__cxx1112basic_stringIcSt11char_traitsIcESaIcEEEiE5emptyEv
FN:455,469,_ZNK13CuckooHashMapINSt7__cxx1112basic_stringIcSt11char_traitsIcESaIcEEEiE5printERSo
FN:474,474,_ZN3SetIiEC2Em
FN:477,479,_ZN3SetIiE3addERKi
FN:482,484,_ZNK3SetIiE8containsERKi
FN:487,489,_ZN3SetIiE6removeERKi
FN:492,494,_ZN3SetIiE5clearEv
FN:497,499,_ZNK3SetIiE4sizeEv
FN:502,504,_ZNK3SetIiE5emptyEv
FN:507,509,_ZNK3SetIiE5printERSo
FNDA:4848,_ZN7HashMapINSt7__cxx1112basic_stringIcSt11char_traitsIcESaIcEEES5_E5EntryC2Ev
FNDA:2727,_ZN7HashMapIibE5EntryC2Ev
FNDA:303,_ZN7HashMapIiiE5EntryC2Ev
FNDA:213,_ZN7HashMapINSt7__cxx1112basic_stringIcSt11char_traitsIcESaIcEEES5_E5EntryC2ERKS5_S9_
FNDA:42,_ZN7HashMapIibE5EntryC2ERKiRKb
FNDA:9,_ZN7HashMapIiiE5EntryC2ERKiS3_
FNDA:48,_ZN7HashMapINSt7__cxx1112basic_stringIcSt11char_traitsIcESaIcEEES5_EC2Em
FNDA:27,_ZN7HashMapIibEC2Em
FNDA:3,_ZN7HashMapIiiEC2Em
FNDA:423,_ZNK7HashMapINSt7__cxx1112basic_stringIcSt11char_traitsIcESaIcEEES5_E5hash1ERKS5_
FNDA:72,_ZNK7HashMapIibE5hash1ERKi
FNDA:18,_ZNK7HashMapIiiE5hash1ERKi
FNDA:423,_ZNK7HashMapINSt7__cxx1112basic_stringIcSt11char_traitsIcESaIcEEES5_E5hash2ERKS5_
FNDA:72,_ZNK7HashMapIibE5hash2ERKi
FNDA:18,_ZNK7HashMapIiiE5hash2ERKi
FNDA:423,_ZNK7HashMapINSt7__cxx1112basic_stringIcSt11char_traitsIcESaIcEEES5_E9findIndexERKS5_Rm
FNDA:72,_ZNK7HashMapIibE9findIndexERKiRm
FNDA:18,_ZNK7HashMapIiiE9findIndexERKiRm
FNDA:216,_ZN7HashMapINSt7__cxx1112basic_stringIcSt11char_traitsIcESaIcEEES5_E3putERKS5_S8_
FNDA:45,_ZN7HashMapIibE3putERKiRKb
FNDA:9,_ZN7HashMapIiiE3putERKiS2_
FNDA:180,_ZNK7HashMapINSt7__cxx1112basic_stringIcSt11char_traitsIcESaIcEEES5_E3getERKS5_
FNDA:9,_ZNK7HashMapIiiE3getERKi
FNDA:15,_ZNK7HashMapINSt7__cxx1112basic_stringIcSt11char_traitsIcESaIcEEES5_E8containsERKS5_
FNDA:21,_ZNK7HashMapIibE8containsERKi
FNDA:12,_ZN7HashMapINSt7__cxx1112basic_stringIcSt11char_traitsIcESaIcEEES5_E6removeERKS5_
FNDA:6,_ZN7HashMapIibE6removeERKi
FNDA:6,_ZN7HashMapINSt7__cxx1112basic_stringIcSt11char_traitsIcESaIcEEES5_E5clearEv
FNDA:3,_ZN7HashMapIibE5clearEv
FNDA:27,_ZNK7HashMapINSt7__cxx1112basic_stringIcSt11char_traitsIcESaIcEEES5_E4sizeEv
FNDA:24,_ZNK7HashMapIibE4sizeEv
FNDA:6,_ZNK7HashMapINSt7__cxx1112basic_stringIcSt11char_traitsIcESaIcEEES5_E5emptyEv
FNDA:9,_ZNK7HashMapIibE5emptyEv
FNDA:3,_ZNK7HashMapINSt7__cxx1112basic_stringIcSt11char_traitsIcESaIcEEES5_E5printERSo
FNDA:3,_ZNK7HashMapINSt7__cxx1112basic_stringIcSt11char_traitsIcESaIcEEES5_E12saveToBinaryERSt14basic_ofstreamIcS3_E
FNDA:3,_ZN7HashMapINSt7__cxx1112basic_stringIcSt11char_traitsIcESaIcEEES5_E14loadFromBinaryERSt14basic_ifstreamIcS3_E
FNDA:6060,_ZN13CuckooHashMapINSt7__cxx1112basic_stringIcSt11char_traitsIcESaIcEEEiE5EntryC2Ev
FNDA:66,_ZN13CuckooHashMapINSt7__cxx1112basic_stringIcSt11char_traitsIcESaIcEEEiE5EntryC2ERKS5_RKi
FNDA:30,_ZN13CuckooHashMapINSt7__cxx1112basic_stringIcSt11char_traitsIcESaIcEEEiEC2Em
FNDA:192,_ZNK13CuckooHashMapINSt7__cxx1112basic_stringIcSt11char_traitsIcESaIcEEEiE5hash1ERKS5_
FNDA:132,_ZNK13CuckooHashMapINSt7__cxx1112basic_stringIcSt11char_traitsIcESaIcEEEiE5hash2ERKS5_
FNDA:63,_ZN13CuckooHashMapINSt7__cxx1112basic_stringIcSt11char_traitsIcESaIcEEEiE14insertInternalERKS5_RKii
FNDA:66,_ZN13CuckooHashMapINSt7__cxx1112basic_stringIcSt11char_traitsIcESaIcEEEiE3putERKS5_RKi
FNDA:45,_ZNK13CuckooHashMapINSt7__cxx1112basic_stringIcSt11char_traitsIcESaIcEEEiE3getERKS5_
FNDA:75,_ZNK13CuckooHashMapINSt7__cxx1112basic_stringIcSt11char_traitsIcESaIcEEEiE8containsERKS5_
FNDA:6,_ZN13CuckooHashMapINSt7__cxx1112basic_stringIcSt11char_traitsIcESaIcEEEiE6removeERKS5_
FNDA:3,_ZN13CuckooHashMapINSt7__cxx1112basic_stringIcSt11char_traitsIcESaIcEEEiE5clearEv
FNDA:18,_ZNK13CuckooHashMapINSt7__cxx1112basic_stringIcSt11char_traitsIcESaIcEEEiE4sizeEv
FNDA:6,_ZNK13CuckooHashMapINSt7__cxx1112basic_stringIcSt11char_traitsIcESaIcEEEiE5emptyEv
FNDA:3,_ZNK13CuckooHashMapINSt7__cxx1112basic_stringIcSt11char_traitsIcESaIcEEEiE5printERSo
FNDA:27,_ZN3SetIiEC2Em
FNDA:45,_ZN3SetIiE3addERKi
FNDA:21,_ZNK3SetIiE8containsERKi
FNDA:6,_ZN3SetIiE6removeERKi
FNDA:3,_ZN3SetIiE5clearEv
FNDA:24,_ZNK3SetIiE4sizeEv
FNDA:9,_ZNK3SetIiE5emptyEv
FNDA:3,_ZNK3SetIiE5printERSo
FNF:58
FNH:58
DA:121,7878
DA:124,264
DA:127,78
DA:128,78
DA:129,78
DA:130,78
DA:133,513
DA:135,513
DA:139,513
DA:141,513
DA:142,513
DA:146,513
DA:147,513
DA:148,513
DA:149,513
DA:151,633
DA:152,633
DA:153,291
DA:155,342
DA:156,222
DA:158,120
DA:160,0
DA:164,270
DA:165,270
DA:166,0
DA:169,270
DA:170,270
DA:171,6
DA:173,264
DA:174,264
DA:176,270
DA:179,189
DA:181,189
DA:182,372
DA:184,3
DA:188,36
DA:190,72
DA:194,18
DA:196,18
DA:197,9
DA:198,9
DA:199,9
DA:201,9
DA:205,9
DA:206,918
DA:207,909
DA:209,9
DA:210,9
DA:213,51
DA:214,51
DA:218,15
DA:219,15
DA:223,3
DA:224,3
DA:225,306
DA:226,303
DA:227,6
DA:228,6
DA:231,3
DA:232,3
DA:264,3
DA:265,3
DA:266,3
DA:268,306
DA:269,303
DA:270,9
DA:271,9
DA:272,9
DA:274,9
DA:275,9
DA:276,9
DA:279,3
DA:282,3
DA:283,3
DA:285,3
DA:287,12
DA:289,9
DA:290,9
DA:291,9
DA:294,9
DA:295,9
DA:296,9
DA:298,9
DA:299,9
DA:300,3
DA:304,6060
DA:307,66
DA:310,30
DA:311,30
DA:312,30
DA:313,30
DA:314,30
DA:317,192
DA:319,192
DA:323,132
DA:325,132
DA:329,63
DA:330,63
DA:331,0
DA:334,63
DA:336,63
DA:337,60
DA:338,60
DA:341,3
DA:342,0
DA:343,0
DA:346,3
DA:347,3
DA:348,3
DA:350,3
DA:352,3
DA:353,3
DA:354,3
DA:357,0
DA:358,0
DA:359,0
DA:362,0
DA:363,0
DA:364,0
DA:366,0
DA:367,3
DA:370,66
DA:371,66
DA:372,0
DA:375,66
DA:376,3
DA:377,3
DA:379,3
DA:380,3
DA:381,0
DA:382,0
DA:384,3
DA:387,63
DA:388,63
DA:393,45
DA:394,45
DA:395,45
DA:397,45
DA:398,42
DA:400,3
DA:401,3
DA:403,0
DA:407,75
DA:408,75
DA:409,75
DA:411,144
DA:412,144
DA:416,6
DA:417,6
DA:418,6
DA:420,6
DA:421,3
DA:422,3
DA:423,3
DA:425,3
DA:426,0
DA:427,0
DA:428,0
DA:430,3
DA:434,3
DA:435,306
DA:436,303
DA:438,306
DA:439,303
DA:441,3
DA:442,3
DA:445,18
DA:446,18
DA:450,6
DA:451,6
DA:455,3
DA:456,3
DA:457,306
DA:458,303
DA:459,3
DA:462,3
DA:463,306
DA:464,303
DA:465,0
DA:468,3
DA:469,3
DA:474,27
DA:477,45
DA:478,45
DA:479,45
DA:482,21
DA:483,21
DA:487,6
DA:488,6
DA:492,3
DA:493,3
DA:494,3
DA:497,24
DA:498,24
DA:502,9
DA:503,9
DA:507,3
DA:508,3
DA:509,3
LF:199
LH:179
end_of_record
TN:
SF:/home/shuballity/proj/prog_study/2grade/labs/lab3/src/containers/linear.h
FN:105,107,_ZN5ArrayINSt7__cxx1112basic_stringIcSt11char_traitsIcESaIcEEEE5clearEv
FN:109,111,_ZNK5ArrayINSt7__cxx1112basic_stringIcSt11char_traitsIcESaIcEEEE4sizeEv
FN:113,115,_ZNK5ArrayINSt7__cxx1112basic_stringIcSt11char_traitsIcESaIcEEEE5emptyEv
FN:117,124,_ZNK5ArrayINSt7__cxx1112basic_stringIcSt11char_traitsIcESaIcEEEE5printERSo
FN:148,157,_ZNK5ArrayINSt7__cxx1112basic_stringIcSt11char_traitsIcESaIcEEEE12saveToBinaryERSt14basic_ofstreamIcS3_E
FN:160,172,_ZN5ArrayINSt7__cxx1112basic_stringIcSt11char_traitsIcESaIcEEEE14loadFromBinaryERSt14basic_ifstreamIcS3_E
FN:18,26,_ZN5ArrayINSt7__cxx1112basic_stringIcSt11char_traitsIcESaIcEEEE6resizeEv
FN:227,227,_ZN5StackINSt7__cxx1112basic_stringIcSt11char_traitsIcESaIcEEEE4NodeC2ERKS5_
FN:232,232,_ZN5StackINSt7__cxx1112basic_stringIcSt11char_traitsIcESaIcEEEEC2Ev
FN:234,236,_ZN5StackINSt7__cxx1112basic_stringIcSt11char_traitsIcESaIcEEEED0Ev
FN:234,236,_ZN5StackINSt7__cxx1112basic_stringIcSt11char_traitsIcESaIcEEEED2Ev
FN:257,262,_ZN5StackINSt7__cxx1112basic_stringIcSt11char_traitsIcESaIcEEEE4pushERKS5_
FN:264,274,_ZN5StackINSt7__cxx1112basic_stringIcSt11char_traitsIcESaIcEEEE3popEv
FN:276,281,_ZNK5StackINSt7__cxx1112basic_stringIcSt11char_traitsIcESaIcEEEE4peekEv
FN:283,290,_ZN5StackINSt7__cxx1112basic_stringIcSt11char_traitsIcESaIcEEEE5clearEv
FN:29,32,_ZN5ArrayINSt7__cxx1112basic_stringIcSt11char_traitsIcESaIcEEEEC2Em
FN:292,294,_ZNK5StackINSt7__cxx1112basic_stringIcSt11char_traitsIcESaIcEEEE4sizeEv
FN:296,298,_ZNK5StackINSt7__cxx1112basic_stringIcSt11char_traitsIcESaIcEEEE5emptyEv
FN:300,309,_ZNK5StackINSt7__cxx1112basic_stringIcSt11char_traitsIcESaIcEEEE5printERSo
FN:34,36,_ZN5ArrayINSt7__cxx1112basic_stringIcSt11char_traitsIcESaIcEEEED0Ev
FN:34,36,_ZN5ArrayINSt7__cxx1112basic_stringIcSt11char_traitsIcESaIcEEEED2Ev
FN:348,364,_ZNK5StackINSt7__cxx1112basic_stringIcSt11char_traitsIcESaIcEEEE12saveToBinaryERSt14basic_ofstreamIcS3_E
FN:367,384,_ZN5StackINSt7__cxx1112basic_stringIcSt11char_traitsIcESaIcEEEE14loadFromBinaryERSt14basic_ifstreamIcS3_E
FN:392,392,_ZN5QueueINSt7__cxx1112basic_stringIcSt11char_traitsIcESaIcEEEE4NodeC2ERKS5_
FN:398,398,_ZN5QueueINSt7__cxx1112basic_stringIcSt11char_traitsIcESaIcEEEEC2Ev
FN:400,402,_ZN5QueueINSt7__cxx1112basic_stringIcSt11char_traitsIcESaIcEEEED0Ev
FN:400,402,_ZN5QueueINSt7__cxx1112basic_stringIcSt11char_traitsIcESaIcEEEED2Ev
FN:426,435,_ZN5QueueINSt7__cxx1112basic_stringIcSt11char_traitsIcESaIcEEEE7enqueueERKS5_
FN:437,450,_ZN5QueueINSt7__cxx1112basic_stringIcSt11char_traitsIcESaIcEEEE7dequeueEv
FN:452,457,_ZNK5QueueINSt7__cxx1112basic_stringIcSt11char_traitsIcESaIcEEEE4peekEv
FN:459,467,_ZN5QueueINSt7__cxx1112basic_stringIcSt11char_traitsIcESaIcEEEE5clearEv
FN:469,471,_ZNK5QueueINSt7__cxx1112basic_stringIcSt11char_traitsIcESaIcEEEE4sizeEv
FN:473,475,_ZNK5QueueINSt7__cxx1112basic_stringIcSt11char_traitsIcESaIcEEEE5emptyEv
FN:477,486,_ZNK5QueueINSt7__cxx1112basic_stringIcSt11char_traitsIcESaIcEEEE5printERSo
FN:515,526,_ZNK5QueueINSt7__cxx1112basic_stringIcSt11char_traitsIcESaIcEEEE12saveToBinaryERSt14basic_ofstreamIcS3_E
FN:529,541,_ZN5QueueINSt7__cxx1112basic_stringIcSt11char_traitsIcESaIcEEEE14loadFromBinaryERSt14basic_ifstreamIcS3_E
FN:60,65,_ZN5ArrayINSt7__cxx1112basic_stringIcSt11char_traitsIcESaIcEEEE4pushERKS5_
FN:67,72,_ZNK5ArrayINSt7__cxx1112basic_stringIcSt11char_traitsIcESaIcEEEE3getEm
FN:74,86,_ZN5ArrayINSt7__cxx1112basic_stringIcSt11char_traitsIcESaIcEEEE6insertEmRKS5_
FN:88,96,_ZN5ArrayINSt7__cxx1112basic_stringIcSt11char_traitsIcESaIcEEEE6removeEm
FN:98,103,_ZN5ArrayINSt7__cxx1112basic_stringIcSt11char_traitsIcESaIcEEEE7replaceEmRKS5_
FNDA:6,_ZN5ArrayINSt7__cxx1112basic_stringIcSt11char_traitsIcESaIcEEEE5clearEv
FNDA:30,_ZNK5ArrayINSt7__cxx1112basic_stringIcSt11char_traitsIcESaIcEEEE4sizeEv
FNDA:9,_ZNK5ArrayINSt7__cxx1112basic_stringIcSt11char_traitsIcESaIcEEEE5emptyEv
FNDA:3,_ZNK5ArrayINSt7__cxx1112basic_stringIcSt11char_traitsIcESaIcEEEE5printERSo
FNDA:3,_ZNK5ArrayINSt7__cxx1112basic_stringIcSt11char_traitsIcESaIcEEEE12saveToBinaryERSt14basic_ofstreamIcS3_E
FNDA:3,_ZN5ArrayINSt7__cxx1112basic_stringIcSt11char_traitsIcESaIcEEEE14loadFromBinaryERSt14basic_ifstreamIcS3_E
FNDA:12,_ZN5ArrayINSt7__cxx1112basic_stringIcSt11char_traitsIcESaIcEEEE6resizeEv
FNDA:387,_ZN5StackINSt7__cxx1112basic_stringIcSt11char_traitsIcESaIcEEEE4NodeC2ERKS5_
FNDA:36,_ZN5StackINSt7__cxx1112basic_stringIcSt11char_traitsIcESaIcEEEEC2Ev
FNDA:33,_ZN5StackINSt7__cxx1112basic_stringIcSt11char_traitsIcESaIcEEEED0Ev
FNDA:36,_ZN5StackINSt7__cxx1112basic_stringIcSt11char_traitsIcESaIcEEEED2Ev
FNDA:387,_ZN5StackINSt7__cxx1112basic_stringIcSt11char_traitsIcESaIcEEEE4pushERKS5_
FNDA:201,_ZN5StackINSt7__cxx1112basic_stringIcSt11char_traitsIcESaIcEEEE3popEv
FNDA:6,_ZNK5StackINSt7__cxx1112basic_stringIcSt11char_traitsIcESaIcEEEE4peekEv
FNDA:42,_ZN5StackINSt7__cxx1112basic_stringIcSt11char_traitsIcESaIcEEEE5clearEv
FNDA:42,_ZN5ArrayINSt7__cxx1112basic_stringIcSt11char_traitsIcESaIcEEEEC2Em
FNDA:27,_ZNK5StackINSt7__cxx1112basic_stringIcSt11char_traitsIcESaIcEEEE4sizeEv
FNDA:12,_ZNK5StackINSt7__cxx1112basic_stringIcSt11char_traitsIcESaIcEEEE5emptyEv
FNDA:3,_ZNK5StackINSt7__cxx1112basic_stringIcSt11char_traitsIcESaIcEEEE5printERSo
FNDA:39,_ZN5ArrayINSt7__cxx1112basic_stringIcSt11char_traitsIcESaIcEEEED0Ev
FNDA:42,_ZN5ArrayINSt7__cxx1112basic_stringIcSt11char_traitsIcESaIcEEEED2Ev
FNDA:3,_ZNK5StackINSt7__cxx1112basic_stringIcSt11char_traitsIcESaIcEEEE12saveToBinaryERSt14basic_ofstreamIcS3_E
FNDA:3,_ZN5StackINSt7__cxx1112basic_stringIcSt11char_traitsIcESaIcEEEE14loadFromBinaryERSt14basic_ifstreamIcS3_E
FNDA:312,_ZN5QueueINSt7__cxx1112basic_stringIcSt11char_traitsIcESaIcEEEE4NodeC2ERKS5_
FNDA:36,_ZN5QueueINSt7__cxx1112basic_stringIcSt11char_traitsIcESaIcEEEEC2Ev
FNDA:33,_ZN5QueueINSt7__cxx1112basic_stringIcSt11char_traitsIcESaIcEEEED0Ev
FNDA:36,_ZN5QueueINSt7__cxx1112basic_stringIcSt11char_traitsIcESaIcEEEED2Ev
FNDA:312,_ZN5QueueINSt7__cxx1112basic_stringIcSt11char_traitsIcESaIcEEEE7enqueueERKS5_
FNDA:126,_ZN5QueueINSt7__cxx1112basic_stringIcSt11char_traitsIcESaIcEEEE7dequeueEv
FNDA:6,_ZNK5QueueINSt7__cxx1112basic_stringIcSt11char_traitsIcESaIcEEEE4peekEv
FNDA:42,_ZN5QueueINSt7__cxx1112basic_stringIcSt11char_traitsIcESaIcEEEE5clearEv
FNDA:30,_ZNK5QueueINSt7__cxx1112basic_stringIcSt11char_traitsIcESaIcEEEE4sizeEv
FNDA:12,_ZNK5QueueINSt7__cxx1112basic_stringIcSt11char_traitsIcESaIcEEEE5emptyEv
FNDA:3,_ZNK5QueueINSt7__cxx1112basic_stringIcSt11char_traitsIcESaIcEEEE5printERSo
FNDA:3,_ZNK5QueueINSt7__cxx1112basic_stringIcSt11char_traitsIcESaIcEEEE12saveToBinaryERSt14basic_ofstreamIcS3_E
FNDA:3,_ZN5QueueINSt7__cxx1112basic_stringIcSt11char_traitsIcESaIcEEEE14loadFromBinaryERSt14basic_ifstreamIcS3_E
FNDA:375,_ZN5ArrayINSt7__cxx1112basic_stringIcSt11char_traitsIcESaIcEEEE4pushERKS5_
FNDA:54,_ZNK5ArrayINSt7__cxx1112basic_stringIcSt11char_traitsIcESaIcEEEE3getEm
FNDA:9,_ZN5ArrayINSt7__cxx1112basic_stringIcSt11char_traitsIcESaIcEEEE6insertEmRKS5_
FNDA:153,_ZN5ArrayINSt7__cxx1112basic_stringIcSt11char_traitsIcESaIcEEEE6removeEm
FNDA:3,_ZN5ArrayINSt7__cxx1112basic_stringIcSt11char_traitsIcESaIcEEEE7replaceEmRKS5_
FNF:41
FNH:41
DA:18,12
DA:19,12
DA:20,912
DA:21,462
DA:22,450
DA:24,462
DA:25,12
DA:26,12
DA:29,42
DA:30,42
DA:31,462
DA:32,42
DA:34,81
DA:35,912
DA:36,123
DA:60,375
DA:61,375
DA:62,12
DA:64,375
DA:65,375
DA:67,54
DA:68,54
DA:69,6
DA:71,48
DA:74,9
DA:75,9
DA:76,0
DA:78,9
DA:79,0
DA:81,15
DA:82,6
DA:84,9
DA:85,9
DA:86,9
DA:88,153
DA:89,153
DA:90,0
DA:92,11331
DA:93,11178
DA:95,153
DA:96,153
DA:98,3
DA:99,3
DA:100,0
DA:102,3
DA:103,3
DA:105,6
DA:106,6
DA:107,6
DA:109,30
DA:110,30
DA:113,9
DA:114,9
DA:117,3
DA:118,3
DA:119,9
DA:120,6
DA:121,6
DA:123,3
DA:124,3
DA:148,3
DA:149,3
DA:150,3
DA:152,12
DA:153,9
DA:154,9
DA:155,9
DA:157,3
DA:160,3
DA:161,3
DA:163,3
DA:165,12
DA:167,9
DA:168,9
DA:169,9
DA:170,9
DA:171,9
DA:172,3
DA:227,387
DA:232,36
DA:234,69
DA:235,36
DA:236,69
DA:257,387
DA:258,387
DA:259,387
DA:260,387
DA:261,387
DA:262,387
DA:264,201
DA:265,201
DA:266,3
DA:268,198
DA:269,198
DA:270,198
DA:271,198
DA:272,198
DA:273,198
DA:276,6
DA:277,6
DA:278,3
DA:280,3
DA:283,42
DA:284,273
DA:285,189
DA:286,189
DA:287,189
DA:289,42
DA:290,42
DA:292,27
DA:293,27
DA:296,12
DA:297,12
DA:300,3
DA:301,3
DA:302,3
DA:303,12
DA:304,9
DA:305,9
DA:306,9
DA:308,3
DA:309,3
DA:348,3
DA:349,3
DA:350,3
DA:352,3
DA:353,3
DA:354,12
DA:355,9
DA:356,9
DA:359,12
DA:360,9
DA:361,9
DA:362,9
DA:364,3
DA:367,3
DA:368,3
DA:370,3
DA:372,3
DA:373,12
DA:375,9
DA:376,9
DA:377,9
DA:378,9
DA:379,9
DA:381,12
DA:382,9
DA:384,3
DA:392,312
DA:398,36
DA:400,69
DA:401,36
DA:402,69
DA:426,312
DA:427,312
DA:428,312
DA:429,27
DA:431,285
DA:432,285
DA:434,312
DA:435,312
DA:437,126
DA:438,126
DA:439,3
DA:441,123
DA:442,123
DA:443,123
DA:444,123
DA:445,9
DA:447,123
DA:448,123
DA:449,123
DA:452,6
DA:453,6
DA:454,3
DA:456,3
DA:459,42
DA:460,273
DA:461,189
DA:462,189
DA:463,189
DA:465,42
DA:466,42
DA:467,42
DA:469,30
DA:470,30
DA:473,12
DA:474,12
DA:477,3
DA:478,3
DA:479,3
DA:480,12
DA:481,9
DA:482,9
DA:483,9
DA:485,3
DA:486,3
DA:515,3
DA:516,3
DA:517,3
DA:519,3
DA:520,12
DA:521,9
DA:522,9
DA:523,9
DA:524,9
DA:526,3
DA:529,3
DA:530,3
DA:532,3
DA:534,12
DA:536,9
DA:537,9
DA:538,9
DA:539,9
DA:540,9
DA:541,3
LF:217
LH:213
end_of_record
TN:
SF:/home/shuballity/proj/prog_study/2grade/labs/lab3/src/containers/singlelist.cpp
FN:11,13,_ZN10SingleListIiED0Ev
FN:11,13,_ZN10SingleListIiED2Ev
FN:16,21,_ZN10SingleListIiE7addHeadERKi
FN:24,36,_ZN10SingleListIiE7addTailERKi
FN:39,62,_ZN10SingleListIiE6removeERKi
FN:5,5,_ZN10SingleListIiE4NodeC2ERKi
FN:65,74,_ZNK10SingleListIiE8containsERKi
FN:77,84,_ZN10SingleListIiE5clearEv
FN:8,8,_ZN10SingleListIiEC2Ev
FN:87,89,_ZNK10SingleListIiE4sizeEv
FN:92,94,_ZNK10SingleListIiE5emptyEv
FN:97,106,_ZNK10SingleListIiE5printERSo
FNDA:33,_ZN10SingleListIiED0Ev
FNDA:33,_ZN10SingleListIiED2Ev
FNDA:12,_ZN10SingleListIiE7addHeadERKi
FNDA:60,_ZN10SingleListIiE7addTailERKi
FNDA:12,_ZN10SingleListIiE6removeERKi
FNDA:72,_ZN10SingleListIiE4NodeC2ERKi
FNDA:30,_ZNK10SingleListIiE8containsERKi
FNDA:36,_ZN10SingleListIiE5clearEv
FNDA:33,_ZN10SingleListIiEC2Ev
FNDA:27,_ZNK10SingleListIiE4sizeEv
FNDA:9,_ZNK10SingleListIiE5emptyEv
FNDA:3,_ZNK10SingleListIiE5printERSo
FNF:12
FNH:12
DA:5,72
DA:8,33
DA:11,66
DA:12,33
DA:13,66
DA:16,12
DA:17,12
DA:18,12
DA:19,12
DA:20,12
DA:21,12
DA:24,60
DA:25,60
DA:26,60
DA:27,24
DA:29,36
DA:30,51
DA:31,15
DA:33,36
DA:35,60
DA:36,60
DA:39,12
DA:40,12
DA:42,12
DA:43,3
DA:44,3
DA:45,3
DA:46,3
DA:47,3
DA:50,9
DA:51,12
DA:52,9
DA:53,6
DA:54,6
DA:55,6
DA:56,6
DA:57,6
DA:59,3
DA:61,3
DA:65,30
DA:66,30
DA:67,57
DA:68,48
DA:69,21
DA:71,27
DA:73,9
DA:77,36
DA:78,135
DA:79,63
DA:80,63
DA:81,63
DA:83,36
DA:84,36
DA:87,27
DA:88,27
DA:92,9
DA:93,9
DA:97,3
DA:98,3
DA:99,3
DA:100,12
DA:101,9
DA:102,9
DA:103,9
DA:105,3
DA:106,3
LF:66
LH:66
end_of_record
TN:
SF:/home/shuballity/proj/prog_study/2grade/labs/lab3/tests/test_array.cpp
FN:10,12,_ZN9ArrayTest5SetUpEv
FN:104,115,_ZN33ArrayTest_MultipleOperations_Test8TestBodyEv
FN:104,115,_ZN33ArrayTest_MultipleOperations_TestC2Ev
FN:104,115,_ZN33ArrayTest_MultipleOperations_TestD0Ev
FN:104,115,_ZN33ArrayTest_MultipleOperations_TestD2Ev
FN:117,125,_ZN20ArrayTest_Print_Test8TestBodyEv
FN:117,125,_ZN20ArrayTest_Print_TestC2Ev
FN:117,125,_ZN20ArrayTest_Print_TestD0Ev
FN:117,125,_ZN20ArrayTest_Print_TestD2Ev
FN:127,150,_ZN34ArrayTest_BinarySerialization_Test8TestBodyEv
FN:127,150,_ZN34ArrayTest_BinarySerialization_TestC2Ev
FN:127,150,_ZN34ArrayTest_BinarySerialization_TestD0Ev
FN:127,150,_ZN34ArrayTest_BinarySerialization_TestD2Ev
FN:14,16,_ZN9ArrayTest8TearDownEv
FN:19,19,_ZN33ArrayTest_DefaultConstructor_Test8TestBodyEv
FN:19,19,_ZN33ArrayTest_DefaultConstructor_TestC2Ev
FN:19,19,_ZN33ArrayTest_DefaultConstructor_TestD0Ev
FN:19,19,_ZN33ArrayTest_DefaultConstructor_TestD2Ev
FN:24,24,_ZN26ArrayTest_PushAndSize_Test8TestBodyEv
FN:24,24,_ZN26ArrayTest_PushAndSize_TestC2Ev
FN:24,24,_ZN26ArrayTest_PushAndSize_TestD0Ev
FN:24,24,_ZN26ArrayTest_PushAndSize_TestD2Ev
FN:33,33,_ZN25ArrayTest_GetElement_Test8TestBodyEv
FN:33,33,_ZN25ArrayTest_GetElement_TestC2Ev
FN:33,33,_ZN25ArrayTest_GetElement_TestD0Ev
FN:33,33,_ZN25ArrayTest_GetElement_TestD2Ev
FN:43,43,_ZN29ArrayTest_GetOutOfBounds_Test8TestBodyEv
FN:43,43,_ZN29ArrayTest_GetOutOfBounds_TestC2Ev
FN:43,43,_ZN29ArrayTest_GetOutOfBounds_TestD0Ev
FN:43,43,_ZN29ArrayTest_GetOutOfBounds_TestD2Ev
FN:49,58,_ZN21ArrayTest_Insert_Test8TestBodyEv
FN:49,58,_ZN21ArrayTest_Insert_TestC2Ev
FN:49,58,_ZN21ArrayTest_Insert_TestD0Ev
FN:49,58,_ZN21ArrayTest_Insert_TestD2Ev
FN:60,66,_ZN32ArrayTest_InsertAtBeginning_Test8TestBodyEv
FN:60,66,_ZN32ArrayTest_InsertAtBeginning_TestC2Ev
FN:60,66,_ZN32ArrayTest_InsertAtBeginning_TestD0Ev
FN:60,66,_ZN32ArrayTest_InsertAtBeginning_TestD2Ev
FN:68,68,_ZN26ArrayTest_InsertAtEnd_Test8TestBodyEv
FN:68,68,_ZN26ArrayTest_InsertAtEnd_TestC2Ev
FN:68,68,_ZN26ArrayTest_InsertAtEnd_TestD0Ev
FN:68,68,_ZN26ArrayTest_InsertAtEnd_TestD2Ev
FN:75,75,_ZN21ArrayTest_Remove_Test8TestBodyEv
FN:75,75,_ZN21ArrayTest_Remove_TestC2Ev
FN:75,75,_ZN21ArrayTest_Remove_TestD0Ev
FN:75,75,_ZN21ArrayTest_Remove_TestD2Ev
FN:86,86,_ZN22ArrayTest_Replace_Test8TestBodyEv
FN:86,86,_ZN22ArrayTest_Replace_TestC2Ev
FN:86,86,_ZN22ArrayTest_Replace_TestD0Ev
FN:86,86,_ZN22ArrayTest_Replace_TestD2Ev
FN:95,95,_ZN20ArrayTest_Clear_Test8TestBodyEv
FN:95,95,_ZN20ArrayTest_Clear_TestC2Ev
FN:95,95,_ZN20ArrayTest_Clear_TestD0Ev
FN:95,95,_ZN20ArrayTest_Clear_TestD2Ev
FNDA:39,_ZN9ArrayTest5SetUpEv
FNDA:3,_ZN33ArrayTest_MultipleOperations_Test8TestBodyEv
FNDA:3,_ZN33ArrayTest_MultipleOperations_TestC2Ev
FNDA:3,_ZN33ArrayTest_MultipleOperations_TestD0Ev
FNDA:3,_ZN33ArrayTest_MultipleOperations_TestD2Ev
FNDA:3,_ZN20ArrayTest_Print_Test8TestBodyEv
FNDA:3,_ZN20ArrayTest_Print_TestC2Ev
FNDA:3,_ZN20ArrayTest_Print_TestD0Ev
FNDA:3,_ZN20ArrayTest_Print_TestD2Ev
FNDA:3,_ZN34ArrayTest_BinarySerialization_Test8TestBodyEv
FNDA:3,_ZN34ArrayTest_BinarySerialization_TestC2Ev
FNDA:3,_ZN34ArrayTest_BinarySerialization_TestD0Ev
FNDA:3,_ZN34ArrayTest_BinarySerialization_TestD2Ev
FNDA:39,_ZN9ArrayTest8TearDownEv
FNDA:3,_ZN33ArrayTest_DefaultConstructor_Test8TestBodyEv
FNDA:3,_ZN33ArrayTest_DefaultConstructor_TestC2Ev
FNDA:3,_ZN33ArrayTest_DefaultConstructor_TestD0Ev
FNDA:3,_ZN33ArrayTest_DefaultConstructor_TestD2Ev
FNDA:3,_ZN26ArrayTest_PushAndSize_Test8TestBodyEv
FNDA:3,_ZN26ArrayTest_PushAndSize_TestC2Ev
FNDA:3,_ZN26ArrayTest_PushAndSize_TestD0Ev
FNDA:3,_ZN26ArrayTest_PushAndSize_TestD2Ev
FNDA:3,_ZN25ArrayTest_GetElement_Test8TestBodyEv
FNDA:3,_ZN25ArrayTest_GetElement_TestC2Ev
FNDA:3,_ZN25ArrayTest_GetElement_TestD0Ev
FNDA:3,_ZN25ArrayTest_GetElement_TestD2Ev
FNDA:3,_ZN29ArrayTest_GetOutOfBounds_Test8TestBodyEv
FNDA:3,_ZN29ArrayTest_GetOutOfBounds_TestC2Ev
FNDA:3,_ZN29ArrayTest_GetOutOfBounds_TestD0Ev
FNDA:3,_ZN29ArrayTest_GetOutOfBounds_TestD2Ev
FNDA:3,_ZN21ArrayTest_Insert_Test8TestBodyEv
FNDA:3,_ZN21ArrayTest_Insert_TestC2Ev
FNDA:3,_ZN21ArrayTest_Insert_TestD0Ev
FNDA:3,_ZN21ArrayTest_Insert_TestD2Ev
FNDA:3,_ZN32ArrayTest_InsertAtBeginning_Test8TestBodyEv
FNDA:3,_ZN32ArrayTest_InsertAtBeginning_TestC2Ev
FNDA:3,_ZN32ArrayTest_InsertAtBeginning_TestD0Ev
FNDA:3,_ZN32ArrayTest_InsertAtBeginning_TestD2Ev
FNDA:3,_ZN26ArrayTest_InsertAtEnd_Test8TestBodyEv
FNDA:3,_ZN26ArrayTest_InsertAtEnd_TestC2Ev
FNDA:3,_ZN26ArrayTest_InsertAtEnd_TestD0Ev
FNDA:3,_ZN26ArrayTest_InsertAtEnd_TestD2Ev
FNDA:3,_ZN21ArrayTest_Remove_Test8TestBodyEv
FNDA:3,_ZN21ArrayTest_Remove_TestC2Ev
FNDA:3,_ZN21ArrayTest_Remove_TestD0Ev
FNDA:3,_ZN21ArrayTest_Remove_TestD2Ev
FNDA:3,_ZN22ArrayTest_Replace_Test8TestBodyEv
FNDA:3,_ZN22ArrayTest_Replace_TestC2Ev
FNDA:3,_ZN22ArrayTest_Replace_TestD0Ev
FNDA:3,_ZN22ArrayTest_Replace_TestD2Ev
FNDA:3,_ZN20ArrayTest_Clear_Test8TestBodyEv
FNDA:3,_ZN20ArrayTest_Clear_TestC2Ev
FNDA:3,_ZN20ArrayTest_Clear_TestD0Ev
FNDA:3,_ZN20ArrayTest_Clear_TestD2Ev
FNF:54
FNH:54
DA:10,39
DA:11,39
DA:12,39
DA:14,39
DA:15,39
DA:16,39
DA:19,12
DA:20,3
DA:21,3
DA:22,3
DA:24,12
DA:25,6
DA:26,3
DA:27,3
DA:29,6
DA:30,3
DA:31,3
DA:33,12
DA:34,6
DA:35,6
DA:36,6
DA:38,3
DA:39,3
DA:40,3
DA:41,3
DA:43,12
DA:44,6
DA:45,3
DA:46,3
DA:47,3
DA:49,12
DA:50,6
DA:51,6
DA:52,6
DA:54,3
DA:55,3
DA:56,3
DA:57,3
DA:58,3
DA:60,12
DA:61,6
DA:62,6
DA:64,3
DA:65,3
DA:66,3
DA:68,12
DA:69,6
DA:70,6
DA:72,3
DA:73,3
DA:75,12
DA:76,6
DA:77,6
DA:78,6
DA:79,3
DA:81,3
DA:82,3
DA:83,3
DA:84,3
DA:86,12
DA:87,6
DA:88,9
DA:89,6
DA:91,3
DA:92,3
DA:93,3
DA:95,12
DA:96,6
DA:97,6
DA:98,3
DA:100,3
DA:101,3
DA:102,3
DA:104,12
DA:105,303
DA:106,300
DA:108,3
DA:110,153
DA:111,150
DA:113,3
DA:114,3
DA:115,3
DA:117,12
DA:118,6
DA:119,6
DA:121,3
DA:122,3
DA:124,3
DA:125,3
DA:127,12
DA:128,6
DA:129,6
DA:130,6
DA:133,3
DA:134,3
DA:135,3
DA:138,3
DA:139,3
DA:140,3
DA:141,3
DA:143,3
DA:144,3
DA:145,3
DA:146,3
DA:149,3
DA:150,3
LF:106
LH:106
end_of_record
TN:
SF:/home/shuballity/proj/prog_study/2grade/labs/lab3/tests/test_avltree.cpp
FN:108,121,_ZN37AVLTreeTest_BalanceRightRotation_Test8TestBodyEv
FN:108,121,_ZN37AVLTreeTest_BalanceRightRotation_TestC2Ev
FN:108,121,_ZN37AVLTreeTest_BalanceRightRotation_TestD0Ev
FN:108,121,_ZN37AVLTreeTest_BalanceRightRotation_TestD2Ev
FN:123,123,_ZN41AVLTreeTest_BalanceLeftRightRotation_Test8TestBodyEv
FN:123,123,_ZN41AVLTreeTest_BalanceLeftRightRotation_TestC2Ev
FN:123,123,_ZN41AVLTreeTest_BalanceLeftRightRotation_TestD0Ev
FN:123,123,_ZN41AVLTreeTest_BalanceLeftRightRotation_TestD2Ev
FN:13,15,_ZN11AVLTreeTest8TearDownEv
FN:134,134,_ZN41AVLTreeTest_BalanceRightLeftRotation_Test8TestBodyEv
FN:134,134,_ZN41AVLTreeTest_BalanceRightLeftRotation_TestC2Ev
FN:134,134,_ZN41AVLTreeTest_BalanceRightLeftRotation_TestD0Ev
FN:134,134,_ZN41AVLTreeTest_BalanceRightLeftRotation_TestD2Ev
FN:145,145,_ZN35AVLTreeTest_MultipleOperations_Test8TestBodyEv
FN:145,145,_ZN35AVLTreeTest_MultipleOperations_TestC2Ev
FN:145,145,_ZN35AVLTreeTest_MultipleOperations_TestD0Ev
FN:145,145,_ZN35AVLTreeTest_MultipleOperations_TestD2Ev
FN:169,199,_ZN36AVLTreeTest_BinarySerialization_Test8TestBodyEv
FN:169,199,_ZN36AVLTreeTest_BinarySerialization_TestC2Ev
FN:169,199,_ZN36AVLTreeTest_BinarySerialization_TestD0Ev
FN:169,199,_ZN36AVLTreeTest_BinarySerialization_TestD2Ev
FN:18,18,_ZN35AVLTreeTest_DefaultConstructor_Test8TestBodyEv
FN:18,18,_ZN35AVLTreeTest_DefaultConstructor_TestC2Ev
FN:18,18,_ZN35AVLTreeTest_DefaultConstructor_TestD0Ev
FN:18,18,_ZN35AVLTreeTest_DefaultConstructor_TestD2Ev
FN:201,208,_ZN31AVLTreeTest_RemoveRootNode_Test8TestBodyEv
FN:201,208,_ZN31AVLTreeTest_RemoveRootNode_TestC2Ev
FN:201,208,_ZN31AVLTreeTest_RemoveRootNode_TestD0Ev
FN:201,208,_ZN31AVLTreeTest_RemoveRootNode_TestD2Ev
FN:210,218,_ZN32AVLTreeTest_RemoveLeafNodes_Test8TestBodyEv
FN:210,218,_ZN32AVLTreeTest_RemoveLeafNodes_TestC2Ev
FN:210,218,_ZN32AVLTreeTest_RemoveLeafNodes_TestD0Ev
FN:210,218,_ZN32AVLTreeTest_RemoveLeafNodes_TestD2Ev
FN:220,220,_ZN22AVLTreeTest_Print_Test8TestBodyEv
FN:220,220,_ZN22AVLTreeTest_Print_TestC2Ev
FN:220,220,_ZN22AVLTreeTest_Print_TestD0Ev
FN:220,220,_ZN22AVLTreeTest_Print_TestD2Ev
FN:23,23,_ZN23AVLTreeTest_Insert_Test8TestBodyEv
FN:23,23,_ZN23AVLTreeTest_Insert_TestC2Ev
FN:23,23,_ZN23AVLTreeTest_Insert_TestD0Ev
FN:23,23,_ZN23AVLTreeTest_Insert_TestD2Ev
FN:232,234,_ZN30AVLTreeTest_SearchInEmpty_Test8TestBodyEv
FN:232,234,_ZN30AVLTreeTest_SearchInEmpty_TestC2Ev
FN:232,234,_ZN30AVLTreeTest_SearchInEmpty_TestD0Ev
FN:232,234,_ZN30AVLTreeTest_SearchInEmpty_TestD2Ev
FN:236,236,_ZN33AVLTreeTest_ComplexRotations_Test8TestBodyEv
FN:236,236,_ZN33AVLTreeTest_ComplexRotations_TestC2Ev
FN:236,236,_ZN33AVLTreeTest_ComplexRotations_TestD0Ev
FN:236,236,_ZN33AVLTreeTest_ComplexRotations_TestD2Ev
FN:29,29,_ZN31AVLTreeTest_InsertMultiple_Test8TestBodyEv
FN:29,29,_ZN31AVLTreeTest_InsertMultiple_TestC2Ev
FN:29,29,_ZN31AVLTreeTest_InsertMultiple_TestD0Ev
FN:29,29,_ZN31AVLTreeTest_InsertMultiple_TestD2Ev
FN:44,44,_ZN32AVLTreeTest_InsertDuplicate_Test8TestBodyEv
FN:44,44,_ZN32AVLTreeTest_InsertDuplicate_TestC2Ev
FN:44,44,_ZN32AVLTreeTest_InsertDuplicate_TestD0Ev
FN:44,44,_ZN32AVLTreeTest_InsertDuplicate_TestD2Ev
FN:51,51,_ZN23AVLTreeTest_Remove_Test8TestBodyEv
FN:51,51,_ZN23AVLTreeTest_Remove_TestC2Ev
FN:51,51,_ZN23AVLTreeTest_Remove_TestD0Ev
FN:51,51,_ZN23AVLTreeTest_Remove_TestD2Ev
FN:61,65,_ZN34AVLTreeTest_RemoveNonExistent_Test8TestBodyEv
FN:61,65,_ZN34AVLTreeTest_RemoveNonExistent_TestC2Ev
FN:61,65,_ZN34AVLTreeTest_RemoveNonExistent_TestD0Ev
FN:61,65,_ZN34AVLTreeTest_RemoveNonExistent_TestD2Ev
FN:67,70,_ZN32AVLTreeTest_RemoveFromEmpty_Test8TestBodyEv
FN:67,70,_ZN32AVLTreeTest_RemoveFromEmpty_TestC2Ev
FN:67,70,_ZN32AVLTreeTest_RemoveFromEmpty_TestD0Ev
FN:67,70,_ZN32AVLTreeTest_RemoveFromEmpty_TestD2Ev
FN:72,72,_ZN23AVLTreeTest_Search_Test8TestBodyEv
FN:72,72,_ZN23AVLTreeTest_Search_TestC2Ev
FN:72,72,_ZN23AVLTreeTest_Search_TestD0Ev
FN:72,72,_ZN23AVLTreeTest_Search_TestD2Ev
FN:83,83,_ZN22AVLTreeTest_Clear_Test8TestBodyEv
FN:83,83,_ZN22AVLTreeTest_Clear_TestC2Ev
FN:83,83,_ZN22AVLTreeTest_Clear_TestD0Ev
FN:83,83,_ZN22AVLTreeTest_Clear_TestD2Ev
FN:9,11,_ZN11AVLTreeTest5SetUpEv
FN:93,93,_ZN36AVLTreeTest_BalanceLeftRotation_Test8TestBodyEv
FN:93,93,_ZN36AVLTreeTest_BalanceLeftRotation_TestC2Ev
FN:93,93,_ZN36AVLTreeTest_BalanceLeftRotation_TestD0Ev
FN:93,93,_ZN36AVLTreeTest_BalanceLeftRotation_TestD2Ev
FNDA:3,_ZN37AVLTreeTest_BalanceRightRotation_Test8TestBodyEv
FNDA:3,_ZN37AVLTreeTest_BalanceRightRotation_TestC2Ev
FNDA:3,_ZN37AVLTreeTest_BalanceRightRotation_TestD0Ev
FNDA:3,_ZN37AVLTreeTest_BalanceRightRotation_TestD2Ev
FNDA:3,_ZN41AVLTreeTest_BalanceLeftRightRotation_Test8TestBodyEv
FNDA:3,_ZN41AVLTreeTest_BalanceLeftRightRotation_TestC2Ev
FNDA:3,_ZN41AVLTreeTest_BalanceLeftRightRotation_TestD0Ev
FNDA:3,_ZN41AVLTreeTest_BalanceLeftRightRotation_TestD2Ev
FNDA:60,_ZN11AVLTreeTest8TearDownEv
FNDA:3,_ZN41AVLTreeTest_BalanceRightLeftRotation_Test8TestBodyEv
FNDA:3,_ZN41AVLTreeTest_BalanceRightLeftRotation_TestC2Ev
FNDA:3,_ZN41AVLTreeTest_BalanceRightLeftRotation_TestD0Ev
FNDA:3,_ZN41AVLTreeTest_BalanceRightLeftRotation_TestD2Ev
FNDA:3,_ZN35AVLTreeTest_MultipleOperations_Test8TestBodyEv
FNDA:3,_ZN35AVLTreeTest_MultipleOperations_TestC2Ev
FNDA:3,_ZN35AVLTreeTest_MultipleOperations_TestD0Ev
FNDA:3,_ZN35AVLTreeTest_MultipleOperations_TestD2Ev
FNDA:3,_ZN36AVLTreeTest_BinarySerialization_Test8TestBodyEv
FNDA:3,_ZN36AVLTreeTest_BinarySerialization_TestC2Ev
FNDA:3,_ZN36AVLTreeTest_BinarySerialization_TestD0Ev
FNDA:3,_ZN36AVLTreeTest_BinarySerialization_TestD2Ev
FNDA:3,_ZN35AVLTreeTest_DefaultConstructor_Test8TestBodyEv
FNDA:3,_ZN35AVLTreeTest_DefaultConstructor_TestC2Ev
FNDA:3,_ZN35AVLTreeTest_DefaultConstructor_TestD0Ev
FNDA:3,_ZN35AVLTreeTest_DefaultConstructor_TestD2Ev
FNDA:3,_ZN31AVLTreeTest_RemoveRootNode_Test8TestBodyEv
FNDA:3,_ZN31AVLTreeTest_RemoveRootNode_TestC2Ev
FNDA:3,_ZN31AVLTreeTest_RemoveRootNode_TestD0Ev
FNDA:3,_ZN31AVLTreeTest_RemoveRootNode_TestD2Ev
FNDA:3,_ZN32AVLTreeTest_RemoveLeafNodes_Test8TestBodyEv
FNDA:3,_ZN32AVLTreeTest_RemoveLeafNodes_TestC2Ev
FNDA:3,_ZN32AVLTreeTest_RemoveLeafNodes_TestD0Ev
FNDA:3,_ZN32AVLTreeTest_RemoveLeafNodes_TestD2Ev
FNDA:3,_ZN22AVLTreeTest_Print_Test8TestBodyEv
FNDA:3,_ZN22AVLTreeTest_Print_TestC2Ev
FNDA:3,_ZN22AVLTreeTest_Print_TestD0Ev
FNDA:3,_ZN22AVLTreeTest_Print_TestD2Ev
FNDA:3,_ZN23AVLTreeTest_Insert_Test8TestBodyEv
FNDA:3,_ZN23AVLTreeTest_Insert_TestC2Ev
FNDA:3,_ZN23AVLTreeTest_Insert_TestD0Ev
FNDA:3,_ZN23AVLTreeTest_Insert_TestD2Ev
FNDA:3,_ZN30AVLTreeTest_SearchInEmpty_Test8TestBodyEv
FNDA:3,_ZN30AVLTreeTest_SearchInEmpty_TestC2Ev
FNDA:3,_ZN30AVLTreeTest_SearchInEmpty_TestD0Ev
FNDA:3,_ZN30AVLTreeTest_SearchInEmpty_TestD2Ev
FNDA:3,_ZN33AVLTreeTest_ComplexRotations_Test8TestBodyEv
FNDA:3,_ZN33AVLTreeTest_ComplexRotations_TestC2Ev
FNDA:3,_ZN33AVLTreeTest_ComplexRotations_TestD0Ev
FNDA:3,_ZN33AVLTreeTest_ComplexRotations_TestD2Ev
FNDA:3,_ZN31AVLTreeTest_InsertMultiple_Test8TestBodyEv
FNDA:3,_ZN31AVLTreeTest_InsertMultiple_TestC2Ev
FNDA:3,_ZN31AVLTreeTest_InsertMultiple_TestD0Ev
FNDA:3,_ZN31AVLTreeTest_InsertMultiple_TestD2Ev
FNDA:3,_ZN32AVLTreeTest_InsertDuplicate_Test8TestBodyEv
FNDA:3,_ZN32AVLTreeTest_InsertDuplicate_TestC2Ev
FNDA:3,_ZN32AVLTreeTest_InsertDuplicate_TestD0Ev
FNDA:3,_ZN32AVLTreeTest_InsertDuplicate_TestD2Ev
FNDA:3,_ZN23AVLTreeTest_Remove_Test8TestBodyEv
FNDA:3,_ZN23AVLTreeTest_Remove_TestC2Ev
FNDA:3,_ZN23AVLTreeTest_Remove_TestD0Ev
FNDA:3,_ZN23AVLTreeTest_Remove_TestD2Ev
FNDA:3,_ZN34AVLTreeTest_RemoveNonExistent_Test8TestBodyEv
FNDA:3,_ZN34AVLTreeTest_RemoveNonExistent_TestC2Ev
FNDA:3,_ZN34AVLTreeTest_RemoveNonExistent_TestD0Ev
FNDA:3,_ZN34AVLTreeTest_RemoveNonExistent_TestD2Ev
FNDA:3,_ZN32AVLTreeTest_RemoveFromEmpty_Test8TestBodyEv
FNDA:3,_ZN32AVLTreeTest_RemoveFromEmpty_TestC2Ev
FNDA:3,_ZN32AVLTreeTest_RemoveFromEmpty_TestD0Ev
FNDA:3,_ZN32AVLTreeTest_RemoveFromEmpty_TestD2Ev
FNDA:3,_ZN23AVLTreeTest_Search_Test8TestBodyEv
FNDA:3,_ZN23AVLTreeTest_Search_TestC2Ev
FNDA:3,_ZN23AVLTreeTest_Search_TestD0Ev
FNDA:3,_ZN23AVLTreeTest_Search_TestD2Ev
FNDA:3,_ZN22AVLTreeTest_Clear_Test8TestBodyEv
FNDA:3,_ZN22AVLTreeTest_Clear_TestC2Ev
FNDA:3,_ZN22AVLTreeTest_Clear_TestD0Ev
FNDA:3,_ZN22AVLTreeTest_Clear_TestD2Ev
FNDA:60,_ZN11AVLTreeTest5SetUpEv
FNDA:3,_ZN36AVLTreeTest_BalanceLeftRotation_Test8TestBodyEv
FNDA:3,_ZN36AVLTreeTest_BalanceLeftRotation_TestC2Ev
FNDA:3,_ZN36AVLTreeTest_BalanceLeftRotation_TestD0Ev
FNDA:3,_ZN36AVLTreeTest_BalanceLeftRotation_TestD2Ev
FNF:82
FNH:82
DA:9,60
DA:10,60
DA:11,60
DA:13,60
DA:14,60
DA:15,60
DA:18,12
DA:19,3
DA:20,3
DA:21,3
DA:23,12
DA:24,3
DA:25,3
DA:26,3
DA:27,3
DA:29,12
DA:30,3
DA:31,3
DA:32,3
DA:33,3
DA:34,3
DA:36,3
DA:37,3
DA:38,3
DA:39,3
DA:40,3
DA:41,3
DA:42,3
DA:44,12
DA:45,3
DA:46,3
DA:48,3
DA:49,3
DA:51,12
DA:52,3
DA:53,3
DA:54,3
DA:56,3
DA:57,3
DA:58,3
DA:59,3
DA:61,12
DA:62,3
DA:63,3
DA:64,3
DA:65,3
DA:67,12
DA:68,3
DA:69,3
DA:70,3
DA:72,12
DA:73,3
DA:74,3
DA:75,3
DA:77,3
DA:78,3
DA:79,3
DA:80,3
DA:81,3
DA:83,12
DA:84,3
DA:85,3
DA:86,3
DA:88,3
DA:89,3
DA:90,3
DA:91,3
DA:93,12
DA:95,3
DA:96,3
DA:97,3
DA:98,3
DA:99,3
DA:101,3
DA:103,18
DA:104,15
DA:106,3
DA:108,12
DA:110,3
DA:111,3
DA:112,3
DA:113,3
DA:114,3
DA:116,3
DA:118,18
DA:119,15
DA:121,3
DA:123,12
DA:124,3
DA:125,3
DA:126,3
DA:128,3
DA:129,3
DA:130,3
DA:131,3
DA:132,3
DA:134,12
DA:135,3
DA:136,3
DA:137,3
DA:139,3
DA:140,3
DA:141,3
DA:142,3
DA:143,3
DA:145,12
DA:147,303
DA:148,300
DA:150,3
DA:153,303
DA:154,300
DA:158,153
DA:159,150
DA:161,3
DA:164,153
DA:165,150
DA:167,3
DA:169,12
DA:170,3
DA:171,3
DA:172,3
DA:173,3
DA:174,3
DA:175,3
DA:176,3
DA:179,3
DA:180,3
DA:181,3
DA:184,3
DA:185,3
DA:186,3
DA:187,3
DA:189,3
DA:190,3
DA:191,3
DA:192,3
DA:193,3
DA:194,3
DA:195,3
DA:196,3
DA:198,3
DA:199,3
DA:201,12
DA:202,3
DA:203,3
DA:204,3
DA:205,3
DA:206,3
DA:207,3
DA:208,3
DA:210,12
DA:211,3
DA:212,3
DA:213,3
DA:214,3
DA:215,3
DA:216,3
DA:217,3
DA:218,3
DA:220,12
DA:221,3
DA:222,3
DA:223,3
DA:224,3
DA:225,3
DA:226,3
DA:227,3
DA:228,3
DA:229,3
DA:230,3
DA:232,12
DA:233,3
DA:234,3
DA:236,12
DA:237,3
DA:238,3
DA:239,3
DA:240,3
DA:241,3
DA:242,3
DA:243,3
DA:244,3
DA:245,3
DA:246,3
DA:247,3
DA:249,3
DA:250,36
DA:251,33
DA:253,3
LF:189
LH:189
end_of_record
TN:
SF:/home/shuballity/proj/prog_study/2grade/labs/lab3/tests/test_cuckoo.cpp
FN:13,15,_ZN17CuckooHashMapTest8TearDownEv
FN:18,18,_ZN41CuckooHashMapTest_DefaultConstructor_Test8TestBodyEv
FN:18,18,_ZN41CuckooHashMapTest_DefaultConstructor_TestC2Ev
FN:18,18,_ZN41CuckooHashMapTest_DefaultConstructor_TestD0Ev
FN:18,18,_ZN41CuckooHashMapTest_DefaultConstructor_TestD2Ev
FN:23,23,_ZN32CuckooHashMapTest_PutAndGet_Test8TestBodyEv
FN:23,23,_ZN32CuckooHashMapTest_PutAndGet_TestC2Ev
FN:23,23,_ZN32CuckooHashMapTest_PutAndGet_TestD0Ev
FN:23,23,_ZN32CuckooHashMapTest_PutAndGet_TestD2Ev
FN:28,28,_ZN34CuckooHashMapTest_PutMultiple_Test8TestBodyEv
FN:28,28,_ZN34CuckooHashMapTest_PutMultiple_TestC2Ev
FN:28,28,_ZN34CuckooHashMapTest_PutMultiple_TestD0Ev
FN:28,28,_ZN34CuckooHashMapTest_PutMultiple_TestD2Ev
FN:38,43,_ZN34CuckooHashMapTest_UpdateValue_Test8TestBodyEv
FN:38,43,_ZN34CuckooHashMapTest_UpdateValue_TestC2Ev
FN:38,43,_ZN34CuckooHashMapTest_UpdateValue_TestD0Ev
FN:38,43,_ZN34CuckooHashMapTest_UpdateValue_TestD2Ev
FN:45,49,_ZN31CuckooHashMapTest_Contains_Test8TestBodyEv
FN:45,49,_ZN31CuckooHashMapTest_Contains_TestC2Ev
FN:45,49,_ZN31CuckooHashMapTest_Contains_TestD0Ev
FN:45,49,_ZN31CuckooHashMapTest_Contains_TestD2Ev
FN:51,57,_ZN29CuckooHashMapTest_Remove_Test8TestBodyEv
FN:51,57,_ZN29CuckooHashMapTest_Remove_TestC2Ev
FN:51,57,_ZN29CuckooHashMapTest_Remove_TestD0Ev
FN:51,57,_ZN29CuckooHashMapTest_Remove_TestD2Ev
FN:59,59,_ZN40CuckooHashMapTest_RemoveNonExistent_Test8TestBodyEv
FN:59,59,_ZN40CuckooHashMapTest_RemoveNonExistent_TestC2Ev
FN:59,59,_ZN40CuckooHashMapTest_RemoveNonExistent_TestD0Ev
FN:59,59,_ZN40CuckooHashMapTest_RemoveNonExistent_TestD2Ev
FN:63,63,_ZN28CuckooHashMapTest_Clear_Test8TestBodyEv
FN:63,63,_ZN28CuckooHashMapTest_Clear_TestC2Ev
FN:63,63,_ZN28CuckooHashMapTest_Clear_TestD0Ev
FN:63,63,_ZN28CuckooHashMapTest_Clear_TestD2Ev
FN:71,71,_ZN28CuckooHashMapTest_Print_Test8TestBodyEv
FN:71,71,_ZN28CuckooHashMapTest_Print_TestC2Ev
FN:71,71,_ZN28CuckooHashMapTest_Print_TestD0Ev
FN:71,71,_ZN28CuckooHashMapTest_Print_TestD2Ev
FN:79,87,_ZN40CuckooHashMapTest_CollisionHandling_Test8TestBodyEv
FN:79,87,_ZN40CuckooHashMapTest_CollisionHandling_TestC2Ev
FN:79,87,_ZN40CuckooHashMapTest_CollisionHandling_TestD0Ev
FN:79,87,_ZN40CuckooHashMapTest_CollisionHandling_TestD2Ev
FN:9,11,_ZN17CuckooHashMapTest5SetUpEv
FNDA:30,_ZN17CuckooHashMapTest8TearDownEv
FNDA:3,_ZN41CuckooHashMapTest_DefaultConstructor_Test8TestBodyEv
FNDA:3,_ZN41CuckooHashMapTest_DefaultConstructor_TestC2Ev
FNDA:3,_ZN41CuckooHashMapTest_DefaultConstructor_TestD0Ev
FNDA:3,_ZN41CuckooHashMapTest_DefaultConstructor_TestD2Ev
FNDA:3,_ZN32CuckooHashMapTest_PutAndGet_Test8TestBodyEv
FNDA:3,_ZN32CuckooHashMapTest_PutAndGet_TestC2Ev
FNDA:3,_ZN32CuckooHashMapTest_PutAndGet_TestD0Ev
FNDA:3,_ZN32CuckooHashMapTest_PutAndGet_TestD2Ev
FNDA:3,_ZN34CuckooHashMapTest_PutMultiple_Test8TestBodyEv
FNDA:3,_ZN34CuckooHashMapTest_PutMultiple_TestC2Ev
FNDA:3,_ZN34CuckooHashMapTest_PutMultiple_TestD0Ev
FNDA:3,_ZN34CuckooHashMapTest_PutMultiple_TestD2Ev
FNDA:3,_ZN34CuckooHashMapTest_UpdateValue_Test8TestBodyEv
FNDA:3,_ZN34CuckooHashMapTest_UpdateValue_TestC2Ev
FNDA:3,_ZN34CuckooHashMapTest_UpdateValue_TestD0Ev
FNDA:3,_ZN34CuckooHashMapTest_UpdateValue_TestD2Ev
FNDA:3,_ZN31CuckooHashMapTest_Contains_Test8TestBodyEv
FNDA:3,_ZN31CuckooHashMapTest_Contains_TestC2Ev
FNDA:3,_ZN31CuckooHashMapTest_Contains_TestD0Ev
FNDA:3,_ZN31CuckooHashMapTest_Contains_TestD2Ev
FNDA:3,_ZN29CuckooHashMapTest_Remove_Test8TestBodyEv
FNDA:3,_ZN29CuckooHashMapTest_Remove_TestC2Ev
FNDA:3,_ZN29CuckooHashMapTest_Remove_TestD0Ev
FNDA:3,_ZN29CuckooHashMapTest_Remove_TestD2Ev
FNDA:3,_ZN40CuckooHashMapTest_RemoveNonExistent_Test8TestBodyEv
FNDA:3,_ZN40CuckooHashMapTest_RemoveNonExistent_TestC2Ev
FNDA:3,_ZN40CuckooHashMapTest_RemoveNonExistent_TestD0Ev
FNDA:3,_ZN40CuckooHashMapTest_RemoveNonExistent_TestD2Ev
FNDA:3,_ZN28CuckooHashMapTest_Clear_Test8TestBodyEv
FNDA:3,_ZN28CuckooHashMapTest_Clear_TestC2Ev
FNDA:3,_ZN28CuckooHashMapTest_Clear_TestD0Ev
FNDA:3,_ZN28CuckooHashMapTest_Clear_TestD2Ev
FNDA:3,_ZN28CuckooHashMapTest_Print_Test8TestBodyEv
FNDA:3,_ZN28CuckooHashMapTest_Print_TestC2Ev
FNDA:3,_ZN28CuckooHashMapTest_Print_TestD0Ev
FNDA:3,_ZN28CuckooHashMapTest_Print_TestD2Ev
FNDA:3,_ZN40CuckooHashMapTest_CollisionHandling_Test8TestBodyEv
FNDA:3,_ZN40CuckooHashMapTest_CollisionHandling_TestC2Ev
FNDA:3,_ZN40CuckooHashMapTest_CollisionHandling_TestD0Ev
FNDA:3,_ZN40CuckooHashMapTest_CollisionHandling_TestD2Ev
FNDA:30,_ZN17CuckooHashMapTest5SetUpEv
FNF:42
FNH:42
DA:9,30
DA:10,30
DA:11,30
DA:13,30
DA:14,30
DA:15,30
DA:18,12
DA:19,3
DA:20,3
DA:21,3
DA:23,12
DA:24,6
DA:25,9
DA:26,3
DA:28,12
DA:29,6
DA:30,6
DA:31,6
DA:32,3
DA:33,9
DA:34,9
DA:35,9
DA:36,3
DA:38,12
DA:39,6
DA:40,6
DA:41,9
DA:42,3
DA:43,3
DA:45,12
DA:46,6
DA:47,9
DA:48,9
DA:49,3
DA:51,12
DA:52,6
DA:53,6
DA:54,9
DA:55,3
DA:56,9
DA:57,3
DA:59,12
DA:60,9
DA:61,3
DA:63,12
DA:64,6
DA:65,6
DA:66,3
DA:67,3
DA:68,3
DA:69,3
DA:71,12
DA:72,6
DA:73,3
DA:74,3
DA:75,3
DA:76,3
DA:77,3
DA:79,12
DA:80,33
DA:81,30
DA:83,3
DA:84,33
DA:85,30
DA:87,3
LF:65
LH:65
end_of_record
TN:
SF:/home/shuballity/proj/prog_study/2grade/labs/lab3/tests/test_doublelist.cpp
FN:13,15,_ZN14DoubleListTest8TearDownEv
FN:18,18,_ZN38DoubleListTest_DefaultConstructor_Test8TestBodyEv
FN:18,18,_ZN38DoubleListTest_DefaultConstructor_TestC2Ev
FN:18,18,_ZN38DoubleListTest_DefaultConstructor_TestD0Ev
FN:18,18,_ZN38DoubleListTest_DefaultConstructor_TestD2Ev
FN:23,23,_ZN27DoubleListTest_AddHead_Test8TestBodyEv
FN:23,23,_ZN27DoubleListTest_AddHead_TestC2Ev
FN:23,23,_ZN27DoubleListTest_AddHead_TestD0Ev
FN:23,23,_ZN27DoubleListTest_AddHead_TestD2Ev
FN:29,29,_ZN27DoubleListTest_AddTail_Test8TestBodyEv
FN:29,29,_ZN27DoubleListTest_AddTail_TestC2Ev
FN:29,29,_ZN27DoubleListTest_AddTail_TestD0Ev
FN:29,29,_ZN27DoubleListTest_AddTail_TestD2Ev
FN:36,41,_ZN35DoubleListTest_AddHeadMultiple_Test8TestBodyEv
FN:36,41,_ZN35DoubleListTest_AddHeadMultiple_TestC2Ev
FN:36,41,_ZN35DoubleListTest_AddHeadMultiple_TestD0Ev
FN:36,41,_ZN35DoubleListTest_AddHeadMultiple_TestD2Ev
FN:43,49,_ZN33DoubleListTest_RemoveElement_Test8TestBodyEv
FN:43,49,_ZN33DoubleListTest_RemoveElement_TestC2Ev
FN:43,49,_ZN33DoubleListTest_RemoveElement_TestD0Ev
FN:43,49,_ZN33DoubleListTest_RemoveElement_TestD2Ev
FN:51,56,_ZN30DoubleListTest_RemoveHead_Test8TestBodyEv
FN:51,56,_ZN30DoubleListTest_RemoveHead_TestC2Ev
FN:51,56,_ZN30DoubleListTest_RemoveHead_TestD0Ev
FN:51,56,_ZN30DoubleListTest_RemoveHead_TestD2Ev
FN:58,58,_ZN30DoubleListTest_RemoveTail_Test8TestBodyEv
FN:58,58,_ZN30DoubleListTest_RemoveTail_TestC2Ev
FN:58,58,_ZN30DoubleListTest_RemoveTail_TestD0Ev
FN:58,58,_ZN30DoubleListTest_RemoveTail_TestD2Ev
FN:66,66,_ZN37DoubleListTest_RemoveNonExistent_Test8TestBodyEv
FN:66,66,_ZN37DoubleListTest_RemoveNonExistent_TestC2Ev
FN:66,66,_ZN37DoubleListTest_RemoveNonExistent_TestD0Ev
FN:66,66,_ZN37DoubleListTest_RemoveNonExistent_TestD2Ev
FN:72,72,_ZN25DoubleListTest_Clear_Test8TestBodyEv
FN:72,72,_ZN25DoubleListTest_Clear_TestC2Ev
FN:72,72,_ZN25DoubleListTest_Clear_TestD0Ev
FN:72,72,_ZN25DoubleListTest_Clear_TestD2Ev
FN:81,91,_ZN25DoubleListTest_Print_Test8TestBodyEv
FN:81,91,_ZN25DoubleListTest_Print_TestC2Ev
FN:81,91,_ZN25DoubleListTest_Print_TestD0Ev
FN:81,91,_ZN25DoubleListTest_Print_TestD2Ev
FN:9,11,_ZN14DoubleListTest5SetUpEv
FNDA:30,_ZN14DoubleListTest8TearDownEv
FNDA:3,_ZN38DoubleListTest_DefaultConstructor_Test8TestBodyEv
FNDA:3,_ZN38DoubleListTest_DefaultConstructor_TestC2Ev
FNDA:3,_ZN38DoubleListTest_DefaultConstructor_TestD0Ev
FNDA:3,_ZN38DoubleListTest_DefaultConstructor_TestD2Ev
FNDA:3,_ZN27DoubleListTest_AddHead_Test8TestBodyEv
FNDA:3,_ZN27DoubleListTest_AddHead_TestC2Ev
FNDA:3,_ZN27DoubleListTest_AddHead_TestD0Ev
FNDA:3,_ZN27DoubleListTest_AddHead_TestD2Ev
FNDA:3,_ZN27DoubleListTest_AddTail_Test8TestBodyEv
FNDA:3,_ZN27DoubleListTest_AddTail_TestC2Ev
FNDA:3,_ZN27DoubleListTest_AddTail_TestD0Ev
FNDA:3,_ZN27DoubleListTest_AddTail_TestD2Ev
FNDA:3,_ZN35DoubleListTest_AddHeadMultiple_Test8TestBodyEv
FNDA:3,_ZN35DoubleListTest_AddHeadMultiple_TestC2Ev
FNDA:3,_ZN35DoubleListTest_AddHeadMultiple_TestD0Ev
FNDA:3,_ZN35DoubleListTest_AddHeadMultiple_TestD2Ev
FNDA:3,_ZN33DoubleListTest_RemoveElement_Test8TestBodyEv
FNDA:3,_ZN33DoubleListTest_RemoveElement_TestC2Ev
FNDA:3,_ZN33DoubleListTest_RemoveElement_TestD0Ev
FNDA:3,_ZN33DoubleListTest_RemoveElement_TestD2Ev
FNDA:3,_ZN30DoubleListTest_RemoveHead_Test8TestBodyEv
FNDA:3,_ZN30DoubleListTest_RemoveHead_TestC2Ev
FNDA:3,_ZN30DoubleListTest_RemoveHead_TestD0Ev
FNDA:3,_ZN30DoubleListTest_RemoveHead_TestD2Ev
FNDA:3,_ZN30DoubleListTest_RemoveTail_Test8TestBodyEv
FNDA:3,_ZN30DoubleListTest_RemoveTail_TestC2Ev
FNDA:3,_ZN30DoubleListTest_RemoveTail_TestD0Ev
FNDA:3,_ZN30DoubleListTest_RemoveTail_TestD2Ev
FNDA:3,_ZN37DoubleListTest_RemoveNonExistent_Test8TestBodyEv
FNDA:3,_ZN37DoubleListTest_RemoveNonExistent_TestC2Ev
FNDA:3,_ZN37DoubleListTest_RemoveNonExistent_TestD0Ev
FNDA:3,_ZN37DoubleListTest_RemoveNonExistent_TestD2Ev
FNDA:3,_ZN25DoubleListTest_Clear_Test8TestBodyEv
FNDA:3,_ZN25DoubleListTest_Clear_TestC2Ev
FNDA:3,_ZN25DoubleListTest_Clear_TestD0Ev
FNDA:3,_ZN25DoubleListTest_Clear_TestD2Ev
FNDA:3,_ZN25DoubleListTest_Print_Test8TestBodyEv
FNDA:3,_ZN25DoubleListTest_Print_TestC2Ev
FNDA:3,_ZN25DoubleListTest_Print_TestD0Ev
FNDA:3,_ZN25DoubleListTest_Print_TestD2Ev
FNDA:30,_ZN14DoubleListTest5SetUpEv
FNF:42
FNH:42
DA:9,30
DA:10,30
DA:11,30
DA:13,30
DA:14,30
DA:15,30
DA:18,12
DA:19,3
DA:20,3
DA:21,3
DA:23,12
DA:24,3
DA:25,3
DA:26,3
DA:27,3
DA:29,12
DA:30,3
DA:31,3
DA:32,3
DA:33,3
DA:34,3
DA:36,12
DA:37,3
DA:38,3
DA:39,3
DA:40,3
DA:41,3
DA:43,12
DA:44,3
DA:45,3
DA:46,3
DA:47,3
DA:48,3
DA:49,3
DA:51,12
DA:52,3
DA:53,3
DA:54,3
DA:55,3
DA:56,3
DA:58,12
DA:59,3
DA:60,3
DA:61,3
DA:62,3
DA:63,3
DA:64,3
DA:66,12
DA:67,3
DA:68,3
DA:69,3
DA:70,3
DA:72,12
DA:73,3
DA:74,3
DA:75,3
DA:76,3
DA:77,3
DA:78,3
DA:79,3
DA:81,12
DA:82,3
DA:83,3
DA:84,3
DA:85,3
DA:86,3
DA:87,3
DA:88,3
DA:89,3
DA:90,3
DA:91,3
LF:71
LH:71
end_of_record
TN:
SF:/home/shuballity/proj/prog_study/2grade/labs/lab3/tests/test_hashmap.cpp
FN:100,100,_ZN36HashMapTest_BinarySerialization_Test8TestBodyEv
FN:100,100,_ZN36HashMapTest_BinarySerialization_TestC2Ev
FN:100,100,_ZN36HashMapTest_BinarySerialization_TestD0Ev
FN:100,100,_ZN36HashMapTest_BinarySerialization_TestD2Ev
FN:124,124,_ZN32HashMapTest_EmptyOperations_Test8TestBodyEv
FN:124,124,_ZN32HashMapTest_EmptyOperations_TestC2Ev
FN:124,124,_ZN32HashMapTest_EmptyOperations_TestD0Ev
FN:124,124,_ZN32HashMapTest_EmptyOperations_TestD2Ev
FN:129,129,_ZN22HashMapTest_Print_Test8TestBodyEv
FN:129,129,_ZN22HashMapTest_Print_TestC2Ev
FN:129,129,_ZN22HashMapTest_Print_TestD0Ev
FN:129,129,_ZN22HashMapTest_Print_TestD2Ev
FN:13,15,_ZN11HashMapTest8TearDownEv
FN:138,138,_ZN34HashMapTest_RemoveAndReinsert_Test8TestBodyEv
FN:138,138,_ZN34HashMapTest_RemoveAndReinsert_TestC2Ev
FN:138,138,_ZN34HashMapTest_RemoveAndReinsert_TestD0Ev
FN:138,138,_ZN34HashMapTest_RemoveAndReinsert_TestD2Ev
FN:146,146,_ZN31HashMapTest_IntegerHashMap_Test8TestBodyEv
FN:146,146,_ZN31HashMapTest_IntegerHashMap_TestC2Ev
FN:146,146,_ZN31HashMapTest_IntegerHashMap_TestD0Ev
FN:146,146,_ZN31HashMapTest_IntegerHashMap_TestD2Ev
FN:18,18,_ZN35HashMapTest_DefaultConstructor_Test8TestBodyEv
FN:18,18,_ZN35HashMapTest_DefaultConstructor_TestC2Ev
FN:18,18,_ZN35HashMapTest_DefaultConstructor_TestD0Ev
FN:18,18,_ZN35HashMapTest_DefaultConstructor_TestD2Ev
FN:23,23,_ZN26HashMapTest_PutAndGet_Test8TestBodyEv
FN:23,23,_ZN26HashMapTest_PutAndGet_TestC2Ev
FN:23,23,_ZN26HashMapTest_PutAndGet_TestD0Ev
FN:23,23,_ZN26HashMapTest_PutAndGet_TestD2Ev
FN:29,29,_ZN28HashMapTest_PutMultiple_Test8TestBodyEv
FN:29,29,_ZN28HashMapTest_PutMultiple_TestC2Ev
FN:29,29,_ZN28HashMapTest_PutMultiple_TestD0Ev
FN:29,29,_ZN28HashMapTest_PutMultiple_TestD2Ev
FN:40,46,_ZN28HashMapTest_UpdateValue_Test8TestBodyEv
FN:40,46,_ZN28HashMapTest_UpdateValue_TestC2Ev
FN:40,46,_ZN28HashMapTest_UpdateValue_TestD0Ev
FN:40,46,_ZN28HashMapTest_UpdateValue_TestD2Ev
FN:48,48,_ZN25HashMapTest_Contains_Test8TestBodyEv
FN:48,48,_ZN25HashMapTest_Contains_TestC2Ev
FN:48,48,_ZN25HashMapTest_Contains_TestD0Ev
FN:48,48,_ZN25HashMapTest_Contains_TestD2Ev
FN:55,55,_ZN23HashMapTest_Remove_Test8TestBodyEv
FN:55,55,_ZN23HashMapTest_Remove_TestC2Ev
FN:55,55,_ZN23HashMapTest_Remove_TestD0Ev
FN:55,55,_ZN23HashMapTest_Remove_TestD2Ev
FN:65,67,_ZN34HashMapTest_RemoveNonExistent_Test8TestBodyEv
FN:65,67,_ZN34HashMapTest_RemoveNonExistent_TestC2Ev
FN:65,67,_ZN34HashMapTest_RemoveNonExistent_TestD0Ev
FN:65,67,_ZN34HashMapTest_RemoveNonExistent_TestD2Ev
FN:69,69,_ZN31HashMapTest_GetNonExistent_Test8TestBodyEv
FN:69,69,_ZN31HashMapTest_GetNonExistent_TestC2Ev
FN:69,69,_ZN31HashMapTest_GetNonExistent_TestD0Ev
FN:69,69,_ZN31HashMapTest_GetNonExistent_TestD2Ev
FN:73,73,_ZN22HashMapTest_Clear_Test8TestBodyEv
FN:73,73,_ZN22HashMapTest_Clear_TestC2Ev
FN:73,73,_ZN22HashMapTest_Clear_TestD0Ev
FN:73,73,_ZN22HashMapTest_Clear_TestD2Ev
FN:83,83,_ZN34HashMapTest_CollisionHandling_Test8TestBodyEv
FN:83,83,_ZN34HashMapTest_CollisionHandling_TestC2Ev
FN:83,83,_ZN34HashMapTest_CollisionHandling_TestD0Ev
FN:83,83,_ZN34HashMapTest_CollisionHandling_TestD2Ev
FN:9,11,_ZN11HashMapTest5SetUpEv
FNDA:3,_ZN36HashMapTest_BinarySerialization_Test8TestBodyEv
FNDA:3,_ZN36HashMapTest_BinarySerialization_TestC2Ev
FNDA:3,_ZN36HashMapTest_BinarySerialization_TestD0Ev
FNDA:3,_ZN36HashMapTest_BinarySerialization_TestD2Ev
FNDA:3,_ZN32HashMapTest_EmptyOperations_Test8TestBodyEv
FNDA:3,_ZN32HashMapTest_EmptyOperations_TestC2Ev
FNDA:3,_ZN32HashMapTest_EmptyOperations_TestD0Ev
FNDA:3,_ZN32HashMapTest_EmptyOperations_TestD2Ev
FNDA:3,_ZN22HashMapTest_Print_Test8TestBodyEv
FNDA:3,_ZN22HashMapTest_Print_TestC2Ev
FNDA:3,_ZN22HashMapTest_Print_TestD0Ev
FNDA:3,_ZN22HashMapTest_Print_TestD2Ev
FNDA:45,_ZN11HashMapTest8TearDownEv
FNDA:3,_ZN34HashMapTest_RemoveAndReinsert_Test8TestBodyEv
FNDA:3,_ZN34HashMapTest_RemoveAndReinsert_TestC2Ev
FNDA:3,_ZN34HashMapTest_RemoveAndReinsert_TestD0Ev
FNDA:3,_ZN34HashMapTest_RemoveAndReinsert_TestD2Ev
FNDA:3,_ZN31HashMapTest_IntegerHashMap_Test8TestBodyEv
FNDA:3,_ZN31HashMapTest_IntegerHashMap_TestC2Ev
FNDA:3,_ZN31HashMapTest_IntegerHashMap_TestD0Ev
FNDA:3,_ZN31HashMapTest_IntegerHashMap_TestD2Ev
FNDA:3,_ZN35HashMapTest_DefaultConstructor_Test8TestBodyEv
FNDA:3,_ZN35HashMapTest_DefaultConstructor_TestC2Ev
FNDA:3,_ZN35HashMapTest_DefaultConstructor_TestD0Ev
FNDA:3,_ZN35HashMapTest_DefaultConstructor_TestD2Ev
FNDA:3,_ZN26HashMapTest_PutAndGet_Test8TestBodyEv
FNDA:3,_ZN26HashMapTest_PutAndGet_TestC2Ev
FNDA:3,_ZN26HashMapTest_PutAndGet_TestD0Ev
FNDA:3,_ZN26HashMapTest_PutAndGet_TestD2Ev
FNDA:3,_ZN28HashMapTest_PutMultiple_Test8TestBodyEv
FNDA:3,_ZN28HashMapTest_PutMultiple_TestC2Ev
FNDA:3,_ZN28HashMapTest_PutMultiple_TestD0Ev
FNDA:3,_ZN28HashMapTest_PutMultiple_TestD2Ev
FNDA:3,_ZN28HashMapTest_UpdateValue_Test8TestBodyEv
FNDA:3,_ZN28HashMapTest_UpdateValue_TestC2Ev
FNDA:3,_ZN28HashMapTest_UpdateValue_TestD0Ev
FNDA:3,_ZN28HashMapTest_UpdateValue_TestD2Ev
FNDA:3,_ZN25HashMapTest_Contains_Test8TestBodyEv
FNDA:3,_ZN25HashMapTest_Contains_TestC2Ev
FNDA:3,_ZN25HashMapTest_Contains_TestD0Ev
FNDA:3,_ZN25HashMapTest_Contains_TestD2Ev
FNDA:3,_ZN23HashMapTest_Remove_Test8TestBodyEv
FNDA:3,_ZN23HashMapTest_Remove_TestC2Ev
FNDA:3,_ZN23HashMapTest_Remove_TestD0Ev
FNDA:3,_ZN23HashMapTest_Remove_TestD2Ev
FNDA:3,_ZN34HashMapTest_RemoveNonExistent_Test8TestBodyEv
FNDA:3,_ZN34HashMapTest_RemoveNonExistent_TestC2Ev
FNDA:3,_ZN34HashMapTest_RemoveNonExistent_TestD0Ev
FNDA:3,_ZN34HashMapTest_RemoveNonExistent_TestD2Ev
FNDA:3,_ZN31HashMapTest_GetNonExistent_Test8TestBodyEv
FNDA:3,_ZN31HashMapTest_GetNonExistent_TestC2Ev
FNDA:3,_ZN31HashMapTest_GetNonExistent_TestD0Ev
FNDA:3,_ZN31HashMapTest_GetNonExistent_TestD2Ev
FNDA:3,_ZN22HashMapTest_Clear_Test8TestBodyEv
FNDA:3,_ZN22HashMapTest_Clear_TestC2Ev
FNDA:3,_ZN22HashMapTest_Clear_TestD0Ev
FNDA:3,_ZN22HashMapTest_Clear_TestD2Ev
FNDA:3,_ZN34HashMapTest_CollisionHandling_Test8TestBodyEv
FNDA:3,_ZN34HashMapTest_CollisionHandling_TestC2Ev
FNDA:3,_ZN34HashMapTest_CollisionHandling_TestD0Ev
FNDA:3,_ZN34HashMapTest_CollisionHandling_TestD2Ev
FNDA:45,_ZN11HashMapTest5SetUpEv
FNF:62
FNH:62
DA:9,45
DA:10,45
DA:11,45
DA:13,45
DA:14,45
DA:15,45
DA:18,12
DA:19,3
DA:20,3
DA:21,3
DA:23,12
DA:24,12
DA:25,3
DA:26,9
DA:27,3
DA:29,12
DA:30,12
DA:31,12
DA:32,12
DA:34,3
DA:35,9
DA:36,9
DA:37,9
DA:38,3
DA:40,12
DA:41,12
DA:42,12
DA:44,3
DA:45,9
DA:46,3
DA:48,12
DA:49,12
DA:51,9
DA:52,9
DA:53,3
DA:55,12
DA:56,12
DA:57,12
DA:59,9
DA:60,3
DA:61,9
DA:62,9
DA:63,3
DA:65,12
DA:66,9
DA:67,3
DA:69,12
DA:70,9
DA:71,3
DA:73,12
DA:74,12
DA:75,12
DA:76,12
DA:78,3
DA:79,3
DA:80,3
DA:81,3
DA:83,12
DA:85,153
DA:86,150
DA:87,150
DA:88,150
DA:89,150
DA:91,3
DA:93,153
DA:94,150
DA:95,150
DA:96,150
DA:97,150
DA:98,3
DA:100,12
DA:101,12
DA:102,12
DA:103,12
DA:106,3
DA:107,3
DA:108,3
DA:111,3
DA:112,3
DA:113,3
DA:114,3
DA:116,3
DA:117,6
DA:118,6
DA:119,6
DA:121,3
DA:122,3
DA:124,12
DA:125,9
DA:126,9
DA:127,3
DA:129,12
DA:130,12
DA:131,12
DA:132,3
DA:133,3
DA:134,3
DA:135,3
DA:136,3
DA:138,12
DA:139,12
DA:140,6
DA:141,12
DA:142,9
DA:143,3
DA:144,3
DA:146,12
DA:147,3
DA:148,3
DA:149,3
DA:150,3
DA:152,3
DA:153,3
DA:154,3
DA:155,3
LF:115
LH:115
end_of_record
TN:
SF:/home/shuballity/proj/prog_study/2grade/labs/lab3/tests/test_queue.cpp
FN:116,133,_ZN33QueueTest_MultipleOperations_Test8TestBodyEv
FN:116,133,_ZN33QueueTest_MultipleOperations_TestC2Ev
FN:116,133,_ZN33QueueTest_MultipleOperations_TestD0Ev
FN:116,133,_ZN33QueueTest_MultipleOperations_TestD2Ev
FN:13,15,_ZN9QueueTest8TearDownEv
FN:18,18,_ZN33QueueTest_DefaultConstructor_Test8TestBodyEv
FN:18,18,_ZN33QueueTest_DefaultConstructor_TestC2Ev
FN:18,18,_ZN33QueueTest_DefaultConstructor_TestD0Ev
FN:18,18,_ZN33QueueTest_DefaultConstructor_TestD2Ev
FN:23,23,_ZN29QueueTest_EnqueueAndSize_Test8TestBodyEv
FN:23,23,_ZN29QueueTest_EnqueueAndSize_TestC2Ev
FN:23,23,_ZN29QueueTest_EnqueueAndSize_TestD0Ev
FN:23,23,_ZN29QueueTest_EnqueueAndSize_TestD2Ev
FN:32,32,_ZN32QueueTest_EnqueueAndDequeue_Test8TestBodyEv
FN:32,32,_ZN32QueueTest_EnqueueAndDequeue_TestC2Ev
FN:32,32,_ZN32QueueTest_EnqueueAndDequeue_TestD0Ev
FN:32,32,_ZN32QueueTest_EnqueueAndDequeue_TestD2Ev
FN:44,44,_ZN19QueueTest_Peek_Test8TestBodyEv
FN:44,44,_ZN19QueueTest_Peek_TestC2Ev
FN:44,44,_ZN19QueueTest_Peek_TestD0Ev
FN:44,44,_ZN19QueueTest_Peek_TestD2Ev
FN:52,54,_ZN27QueueTest_DequeueEmpty_Test8TestBodyEv
FN:52,54,_ZN27QueueTest_DequeueEmpty_TestC2Ev
FN:52,54,_ZN27QueueTest_DequeueEmpty_TestD0Ev
FN:52,54,_ZN27QueueTest_DequeueEmpty_TestD2Ev
FN:56,56,_ZN24QueueTest_PeekEmpty_Test8TestBodyEv
FN:56,56,_ZN24QueueTest_PeekEmpty_TestC2Ev
FN:56,56,_ZN24QueueTest_PeekEmpty_TestD0Ev
FN:56,56,_ZN24QueueTest_PeekEmpty_TestD2Ev
FN:60,60,_ZN20QueueTest_Clear_Test8TestBodyEv
FN:60,60,_ZN20QueueTest_Clear_TestC2Ev
FN:60,60,_ZN20QueueTest_Clear_TestD0Ev
FN:60,60,_ZN20QueueTest_Clear_TestD2Ev
FN:70,70,_ZN25QueueTest_FIFO_Order_Test8TestBodyEv
FN:70,70,_ZN25QueueTest_FIFO_Order_TestC2Ev
FN:70,70,_ZN25QueueTest_FIFO_Order_TestD0Ev
FN:70,70,_ZN25QueueTest_FIFO_Order_TestD2Ev
FN:81,81,_ZN20QueueTest_Print_Test8TestBodyEv
FN:81,81,_ZN20QueueTest_Print_TestC2Ev
FN:81,81,_ZN20QueueTest_Print_TestD0Ev
FN:81,81,_ZN20QueueTest_Print_TestD2Ev
FN:9,11,_ZN9QueueTest5SetUpEv
FN:92,114,_ZN34QueueTest_BinarySerialization_Test8TestBodyEv
FN:92,114,_ZN34QueueTest_BinarySerialization_TestC2Ev
FN:92,114,_ZN34QueueTest_BinarySerialization_TestD0Ev
FN:92,114,_ZN34QueueTest_BinarySerialization_TestD2Ev
FNDA:3,_ZN33QueueTest_MultipleOperations_Test8TestBodyEv
FNDA:3,_ZN33QueueTest_MultipleOperations_TestC2Ev
FNDA:3,_ZN33QueueTest_MultipleOperations_TestD0Ev
FNDA:3,_ZN33QueueTest_MultipleOperations_TestD2Ev
FNDA:33,_ZN9QueueTest8TearDownEv
FNDA:3,_ZN33QueueTest_DefaultConstructor_Test8TestBodyEv
FNDA:3,_ZN33QueueTest_DefaultConstructor_TestC2Ev
FNDA:3,_ZN33QueueTest_DefaultConstructor_TestD0Ev
FNDA:3,_ZN33QueueTest_DefaultConstructor_TestD2Ev
FNDA:3,_ZN29QueueTest_EnqueueAndSize_Test8TestBodyEv
FNDA:3,_ZN29QueueTest_EnqueueAndSize_TestC2Ev
FNDA:3,_ZN29QueueTest_EnqueueAndSize_TestD0Ev
FNDA:3,_ZN29QueueTest_EnqueueAndSize_TestD2Ev
FNDA:3,_ZN32QueueTest_EnqueueAndDequeue_Test8TestBodyEv
FNDA:3,_ZN32QueueTest_EnqueueAndDequeue_TestC2Ev
FNDA:3,_ZN32QueueTest_EnqueueAndDequeue_TestD0Ev
FNDA:3,_ZN32QueueTest_EnqueueAndDequeue_TestD2Ev
FNDA:3,_ZN19QueueTest_Peek_Test8TestBodyEv
FNDA:3,_ZN19QueueTest_Peek_TestC2Ev
FNDA:3,_ZN19QueueTest_Peek_TestD0Ev
FNDA:3,_ZN19QueueTest_Peek_TestD2Ev
FNDA:3,_ZN27QueueTest_DequeueEmpty_Test8TestBodyEv
FNDA:3,_ZN27QueueTest_DequeueEmpty_TestC2Ev
FNDA:3,_ZN27QueueTest_DequeueEmpty_TestD0Ev
FNDA:3,_ZN27QueueTest_DequeueEmpty_TestD2Ev
FNDA:3,_ZN24QueueTest_PeekEmpty_Test8TestBodyEv
FNDA:3,_ZN24QueueTest_PeekEmpty_TestC2Ev
FNDA:3,_ZN24QueueTest_PeekEmpty_TestD0Ev
FNDA:3,_ZN24QueueTest_PeekEmpty_TestD2Ev
FNDA:3,_ZN20QueueTest_Clear_Test8TestBodyEv
FNDA:3,_ZN20QueueTest_Clear_TestC2Ev
FNDA:3,_ZN20QueueTest_Clear_TestD0Ev
FNDA:3,_ZN20QueueTest_Clear_TestD2Ev
FNDA:3,_ZN25QueueTest_FIFO_Order_Test8TestBodyEv
FNDA:3,_ZN25QueueTest_FIFO_Order_TestC2Ev
FNDA:3,_ZN25QueueTest_FIFO_Order_TestD0Ev
FNDA:3,_ZN25QueueTest_FIFO_Order_TestD2Ev
FNDA:3,_ZN20QueueTest_Print_Test8TestBodyEv
FNDA:3,_ZN20QueueTest_Print_TestC2Ev
FNDA:3,_ZN20QueueTest_Print_TestD0Ev
FNDA:3,_ZN20QueueTest_Print_TestD2Ev
FNDA:33,_ZN9QueueTest5SetUpEv
FNDA:3,_ZN34QueueTest_BinarySerialization_Test8TestBodyEv
FNDA:3,_ZN34QueueTest_BinarySerialization_TestC2Ev
FNDA:3,_ZN34QueueTest_BinarySerialization_TestD0Ev
FNDA:3,_ZN34QueueTest_BinarySerialization_TestD2Ev
FNF:46
FNH:46
DA:9,33
DA:10,33
DA:11,33
DA:13,33
DA:14,33
DA:15,33
DA:18,12
DA:19,3
DA:20,3
DA:21,3
DA:23,12
DA:24,6
DA:25,3
DA:26,3
DA:28,6
DA:29,3
DA:30,3
DA:32,12
DA:33,6
DA:34,6
DA:35,6
DA:37,3
DA:38,3
DA:39,3
DA:40,3
DA:41,3
DA:42,3
DA:44,12
DA:45,6
DA:46,6
DA:48,3
DA:49,3
DA:50,3
DA:52,12
DA:53,3
DA:54,3
DA:56,12
DA:57,3
DA:58,3
DA:60,12
DA:61,6
DA:62,6
DA:63,6
DA:65,3
DA:66,3
DA:67,3
DA:68,3
DA:70,12
DA:72,33
DA:73,30
DA:76,33
DA:77,30
DA:79,3
DA:81,12
DA:82,6
DA:83,6
DA:84,6
DA:86,3
DA:87,3
DA:89,3
DA:90,3
DA:92,12
DA:93,6
DA:94,6
DA:95,6
DA:98,3
DA:99,3
DA:100,3
DA:103,3
DA:104,3
DA:105,3
DA:106,3
DA:108,3
DA:109,3
DA:110,3
DA:111,3
DA:113,3
DA:114,3
DA:116,12
DA:118,153
DA:119,150
DA:121,3
DA:123,78
DA:124,75
DA:126,3
DA:129,78
DA:130,75
DA:132,3
DA:133,3
LF:89
LH:89
end_of_record
TN:
SF:/home/shuballity/proj/prog_study/2grade/labs/lab3/tests/test_set.cpp
FN:13,15,_ZN7SetTest8TearDownEv
FN:18,18,_ZN31SetTest_DefaultConstructor_Test8TestBodyEv
FN:18,18,_ZN31SetTest_DefaultConstructor_TestC2Ev
FN:18,18,_ZN31SetTest_DefaultConstructor_TestD0Ev
FN:18,18,_ZN31SetTest_DefaultConstructor_TestD2Ev
FN:23,23,_ZN16SetTest_Add_Test8TestBodyEv
FN:23,23,_ZN16SetTest_Add_TestC2Ev
FN:23,23,_ZN16SetTest_Add_TestD0Ev
FN:23,23,_ZN16SetTest_Add_TestD2Ev
FN:30,30,_ZN24SetTest_AddMultiple_Test8TestBodyEv
FN:30,30,_ZN24SetTest_AddMultiple_TestC2Ev
FN:30,30,_ZN24SetTest_AddMultiple_TestD0Ev
FN:30,30,_ZN24SetTest_AddMultiple_TestD2Ev
FN:40,40,_ZN25SetTest_AddDuplicate_Test8TestBodyEv
FN:40,40,_ZN25SetTest_AddDuplicate_TestC2Ev
FN:40,40,_ZN25SetTest_AddDuplicate_TestD0Ev
FN:40,40,_ZN25SetTest_AddDuplicate_TestD2Ev
FN:46,50,_ZN21SetTest_Contains_Test8TestBodyEv
FN:46,50,_ZN21SetTest_Contains_TestC2Ev
FN:46,50,_ZN21SetTest_Contains_TestD0Ev
FN:46,50,_ZN21SetTest_Contains_TestD2Ev
FN:52,58,_ZN19SetTest_Remove_Test8TestBodyEv
FN:52,58,_ZN19SetTest_Remove_TestC2Ev
FN:52,58,_ZN19SetTest_Remove_TestD0Ev
FN:52,58,_ZN19SetTest_Remove_TestD2Ev
FN:60,60,_ZN30SetTest_RemoveNonExistent_Test8TestBodyEv
FN:60,60,_ZN30SetTest_RemoveNonExistent_TestC2Ev
FN:60,60,_ZN30SetTest_RemoveNonExistent_TestD0Ev
FN:60,60,_ZN30SetTest_RemoveNonExistent_TestD2Ev
FN:66,66,_ZN18SetTest_Clear_Test8TestBodyEv
FN:66,66,_ZN18SetTest_Clear_TestC2Ev
FN:66,66,_ZN18SetTest_Clear_TestD0Ev
FN:66,66,_ZN18SetTest_Clear_TestD2Ev
FN:75,82,_ZN18SetTest_Print_Test8TestBodyEv
FN:75,82,_ZN18SetTest_Print_TestC2Ev
FN:75,82,_ZN18SetTest_Print_TestD0Ev
FN:75,82,_ZN18SetTest_Print_TestD2Ev
FN:9,11,_ZN7SetTest5SetUpEv
FNDA:27,_ZN7SetTest8TearDownEv
FNDA:3,_ZN31SetTest_DefaultConstructor_Test8TestBodyEv
FNDA:3,_ZN31SetTest_DefaultConstructor_TestC2Ev
FNDA:3,_ZN31SetTest_DefaultConstructor_TestD0Ev
FNDA:3,_ZN31SetTest_DefaultConstructor_TestD2Ev
FNDA:3,_ZN16SetTest_Add_Test8TestBodyEv
FNDA:3,_ZN16SetTest_Add_TestC2Ev
FNDA:3,_ZN16SetTest_Add_TestD0Ev
FNDA:3,_ZN16SetTest_Add_TestD2Ev
FNDA:3,_ZN24SetTest_AddMultiple_Test8TestBodyEv
FNDA:3,_ZN24SetTest_AddMultiple_TestC2Ev
FNDA:3,_ZN24SetTest_AddMultiple_TestD0Ev
FNDA:3,_ZN24SetTest_AddMultiple_TestD2Ev
FNDA:3,_ZN25SetTest_AddDuplicate_Test8TestBodyEv
FNDA:3,_ZN25SetTest_AddDuplicate_TestC2Ev
FNDA:3,_ZN25SetTest_AddDuplicate_TestD0Ev
FNDA:3,_ZN25SetTest_AddDuplicate_TestD2Ev
FNDA:3,_ZN21SetTest_Contains_Test8TestBodyEv
FNDA:3,_ZN21SetTest_Contains_TestC2Ev
FNDA:3,_ZN21SetTest_Contains_TestD0Ev
FNDA:3,_ZN21SetTest_Contains_TestD2Ev
FNDA:3,_ZN19SetTest_Remove_Test8TestBodyEv
FNDA:3,_ZN19SetTest_Remove_TestC2Ev
FNDA:3,_ZN19SetTest_Remove_TestD0Ev
FNDA:3,_ZN19SetTest_Remove_TestD2Ev
FNDA:3,_ZN30SetTest_RemoveNonExistent_Test8TestBodyEv
FNDA:3,_ZN30SetTest_RemoveNonExistent_TestC2Ev
FNDA:3,_ZN30SetTest_RemoveNonExistent_TestD0Ev
FNDA:3,_ZN30SetTest_RemoveNonExistent_TestD2Ev
FNDA:3,_ZN18SetTest_Clear_Test8TestBodyEv
FNDA:3,_ZN18SetTest_Clear_TestC2Ev
FNDA:3,_ZN18SetTest_Clear_TestD0Ev
FNDA:3,_ZN18SetTest_Clear_TestD2Ev
FNDA:3,_ZN18SetTest_Print_Test8TestBodyEv
FNDA:3,_ZN18SetTest_Print_TestC2Ev
FNDA:3,_ZN18SetTest_Print_TestD0Ev
FNDA:3,_ZN18SetTest_Print_TestD2Ev
FNDA:27,_ZN7SetTest5SetUpEv
FNF:38
FNH:38
DA:9,27
DA:10,27
DA:11,27
DA:13,27
DA:14,27
DA:15,27
DA:18,12
DA:19,3
DA:20,3
DA:21,3
DA:23,12
DA:24,3
DA:25,3
DA:26,3
DA:27,3
DA:28,3
DA:30,12
DA:31,3
DA:32,3
DA:33,3
DA:34,3
DA:35,3
DA:36,3
DA:37,3
DA:38,3
DA:40,12
DA:41,3
DA:42,3
DA:43,3
DA:44,3
DA:46,12
DA:47,3
DA:48,3
DA:49,3
DA:50,3
DA:52,12
DA:53,3
DA:54,3
DA:55,3
DA:56,3
DA:57,3
DA:58,3
DA:60,12
DA:61,3
DA:62,3
DA:63,3
DA:64,3
DA:66,12
DA:67,3
DA:68,3
DA:69,3
DA:70,3
DA:71,3
DA:72,3
DA:73,3
DA:75,12
DA:76,3
DA:77,3
DA:78,3
DA:79,3
DA:80,3
DA:81,3
DA:82,3
LF:63
LH:63
end_of_record
TN:
SF:/home/shuballity/proj/prog_study/2grade/labs/lab3/tests/test_singlelist.cpp
FN:13,15,_ZN14SingleListTest8TearDownEv
FN:18,18,_ZN38SingleListTest_DefaultConstructor_Test8TestBodyEv
FN:18,18,_ZN38SingleListTest_DefaultConstructor_TestC2Ev
FN:18,18,_ZN38SingleListTest_DefaultConstructor_TestD0Ev
FN:18,18,_ZN38SingleListTest_DefaultConstructor_TestD2Ev
FN:23,23,_ZN27SingleListTest_AddHead_Test8TestBodyEv
FN:23,23,_ZN27SingleListTest_AddHead_TestC2Ev
FN:23,23,_ZN27SingleListTest_AddHead_TestD0Ev
FN:23,23,_ZN27SingleListTest_AddHead_TestD2Ev
FN:30,30,_ZN27SingleListTest_AddTail_Test8TestBodyEv
FN:30,30,_ZN27SingleListTest_AddTail_TestC2Ev
FN:30,30,_ZN27SingleListTest_AddTail_TestD0Ev
FN:30,30,_ZN27SingleListTest_AddTail_TestD2Ev
FN:40,40,_ZN35SingleListTest_AddHeadMultiple_Test8TestBodyEv
FN:40,40,_ZN35SingleListTest_AddHeadMultiple_TestC2Ev
FN:40,40,_ZN35SingleListTest_AddHeadMultiple_TestD0Ev
FN:40,40,_ZN35SingleListTest_AddHeadMultiple_TestD2Ev
FN:47,54,_ZN33SingleListTest_RemoveElement_Test8TestBodyEv
FN:47,54,_ZN33SingleListTest_RemoveElement_TestC2Ev
FN:47,54,_ZN33SingleListTest_RemoveElement_TestD0Ev
FN:47,54,_ZN33SingleListTest_RemoveElement_TestD2Ev
FN:56,56,_ZN30SingleListTest_RemoveHead_Test8TestBodyEv
FN:56,56,_ZN30SingleListTest_RemoveHead_TestC2Ev
FN:56,56,_ZN30SingleListTest_RemoveHead_TestD0Ev
FN:56,56,_ZN30SingleListTest_RemoveHead_TestD2Ev
FN:65,65,_ZN30SingleListTest_RemoveTail_Test8TestBodyEv
FN:65,65,_ZN30SingleListTest_RemoveTail_TestC2Ev
FN:65,65,_ZN30SingleListTest_RemoveTail_TestD0Ev
FN:65,65,_ZN30SingleListTest_RemoveTail_TestD2Ev
FN:73,73,_ZN37SingleListTest_RemoveNonExistent_Test8TestBodyEv
FN:73,73,_ZN37SingleListTest_RemoveNonExistent_TestC2Ev
FN:73,73,_ZN37SingleListTest_RemoveNonExistent_TestD0Ev
FN:73,73,_ZN37SingleListTest_RemoveNonExistent_TestD2Ev
FN:79,79,_ZN28SingleListTest_Contains_Test8TestBodyEv
FN:79,79,_ZN28SingleListTest_Contains_TestC2Ev
FN:79,79,_ZN28SingleListTest_Contains_TestD0Ev
FN:79,79,_ZN28SingleListTest_Contains_TestD2Ev
FN:87,94,_ZN25SingleListTest_Clear_Test8TestBodyEv
FN:87,94,_ZN25SingleListTest_Clear_TestC2Ev
FN:87,94,_ZN25SingleListTest_Clear_TestD0Ev
FN:87,94,_ZN25SingleListTest_Clear_TestD2Ev
FN:9,11,_ZN14SingleListTest5SetUpEv
FN:96,106,_ZN25SingleListTest_Print_Test8TestBodyEv
FN:96,106,_ZN25SingleListTest_Print_TestC2Ev
FN:96,106,_ZN25SingleListTest_Print_TestD0Ev
FN:96,106,_ZN25SingleListTest_Print_TestD2Ev
FNDA:33,_ZN14SingleListTest8TearDownEv
FNDA:3,_ZN38SingleListTest_DefaultConstructor_Test8TestBodyEv
FNDA:3,_ZN38SingleListTest_DefaultConstructor_TestC2Ev
FNDA:3,_ZN38SingleListTest_DefaultConstructor_TestD0Ev
FNDA:3,_ZN38SingleListTest_DefaultConstructor_TestD2Ev
FNDA:3,_ZN27SingleListTest_AddHead_Test8TestBodyEv
FNDA:3,_ZN27SingleListTest_AddHead_TestC2Ev
FNDA:3,_ZN27SingleListTest_AddHead_TestD0Ev
FNDA:3,_ZN27SingleListTest_AddHead_TestD2Ev
FNDA:3,_ZN27SingleListTest_AddTail_Test8TestBodyEv
FNDA:3,_ZN27SingleListTest_AddTail_TestC2Ev
FNDA:3,_ZN27SingleListTest_AddTail_TestD0Ev
FNDA:3,_ZN27SingleListTest_AddTail_TestD2Ev
FNDA:3,_ZN35SingleListTest_AddHeadMultiple_Test8TestBodyEv
FNDA:3,_ZN35SingleListTest_AddHeadMultiple_TestC2Ev
FNDA:3,_ZN35SingleListTest_AddHeadMultiple_TestD0Ev
FNDA:3,_ZN35SingleListTest_AddHeadMultiple_TestD2Ev
FNDA:3,_ZN33SingleListTest_RemoveElement_Test8TestBodyEv
FNDA:3,_ZN33SingleListTest_RemoveElement_TestC2Ev
FNDA:3,_ZN33SingleListTest_RemoveElement_TestD0Ev
FNDA:3,_ZN33SingleListTest_RemoveElement_TestD2Ev
FNDA:3,_ZN30SingleListTest_RemoveHead_Test8TestBodyEv
FNDA:3,_ZN30SingleListTest_RemoveHead_TestC2Ev
FNDA:3,_ZN30SingleListTest_RemoveHead_TestD0Ev
FNDA:3,_ZN30SingleListTest_RemoveHead_TestD2Ev
FNDA:3,_ZN30SingleListTest_RemoveTail_Test8TestBodyEv
FNDA:3,_ZN30SingleListTest_RemoveTail_TestC2Ev
FNDA:3,_ZN30SingleListTest_RemoveTail_TestD0Ev
FNDA:3,_ZN30SingleListTest_RemoveTail_TestD2Ev
FNDA:3,_ZN37SingleListTest_RemoveNonExistent_Test8TestBodyEv
FNDA:3,_ZN37SingleListTest_RemoveNonExistent_TestC2Ev
FNDA:3,_ZN37SingleListTest_RemoveNonExistent_TestD0Ev
FNDA:3,_ZN37SingleListTest_RemoveNonExistent_TestD2Ev
FNDA:3,_ZN28SingleListTest_Contains_Test8TestBodyEv
FNDA:3,_ZN28SingleListTest_Contains_TestC2Ev
FNDA:3,_ZN28SingleListTest_Contains_TestD0Ev
FNDA:3,_ZN28SingleListTest_Contains_TestD2Ev
FNDA:3,_ZN25SingleListTest_Clear_Test8TestBodyEv
FNDA:3,_ZN25SingleListTest_Clear_TestC2Ev
FNDA:3,_ZN25SingleListTest_Clear_TestD0Ev
FNDA:3,_ZN25SingleListTest_Clear_TestD2Ev
FNDA:33,_ZN14SingleListTest5SetUpEv
FNDA:3,_ZN25SingleListTest_Print_Test8TestBodyEv
FNDA:3,_ZN25SingleListTest_Print_TestC2Ev
FNDA:3,_ZN25SingleListTest_Print_TestD0Ev
FNDA:3,_ZN25SingleListTest_Print_TestD2Ev
FNF:46
FNH:46
DA:9,33
DA:10,33
DA:11,33
DA:13,33
DA:14,33
DA:15,33
DA:18,12
DA:19,3
DA:20,3
DA:21,3
DA:23,12
DA:24,3
DA:25,3
DA:26,3
DA:27,3
DA:28,3
DA:30,12
DA:31,3
DA:32,3
DA:33,3
DA:34,3
DA:35,3
DA:36,3
DA:37,3
DA:38,3
DA:40,12
DA:41,3
DA:42,3
DA:43,3
DA:44,3
DA:45,3
DA:47,12
DA:48,3
DA:49,3
DA:50,3
DA:51,3
DA:52,3
DA:53,3
DA:54,3
DA:56,12
DA:57,3
DA:58,3
DA:59,3
DA:60,3
DA:61,3
DA:62,3
DA:63,3
DA:65,12
DA:66,3
DA:67,3
DA:68,3
DA:69,3
DA:70,3
DA:71,3
DA:73,12
DA:74,3
DA:75,3
DA:76,3
DA:77,3
DA:79,12
DA:80,3
DA:81,3
DA:82,3
DA:83,3
DA:84,3
DA:85,3
DA:87,12
DA:88,3
DA:89,3
DA:90,3
DA:91,3
DA:92,3
DA:93,3
DA:94,3
DA:96,12
DA:97,3
DA:98,3
DA:99,3
DA:100,3
DA:101,3
DA:102,3
DA:103,3
DA:104,3
DA:105,3
DA:106,3
LF:85
LH:85
end_of_record
TN:
SF:/home/shuballity/proj/prog_study/2grade/labs/lab3/tests/test_stack.cpp
FN:116,126,_ZN33StackTest_MultipleOperations_Test8TestBodyEv
FN:116,126,_ZN33StackTest_MultipleOperations_TestC2Ev
FN:116,126,_ZN33StackTest_MultipleOperations_TestD0Ev
FN:116,126,_ZN33StackTest_MultipleOperations_TestD2Ev
FN:13,15,_ZN9StackTest8TearDownEv
FN:18,18,_ZN33StackTest_DefaultConstructor_Test8TestBodyEv
FN:18,18,_ZN33StackTest_DefaultConstructor_TestC2Ev
FN:18,18,_ZN33StackTest_DefaultConstructor_TestD0Ev
FN:18,18,_ZN33StackTest_DefaultConstructor_TestD2Ev
FN:23,23,_ZN26StackTest_PushAndSize_Test8TestBodyEv
FN:23,23,_ZN26StackTest_PushAndSize_TestC2Ev
FN:23,23,_ZN26StackTest_PushAndSize_TestD0Ev
FN:23,23,_ZN26StackTest_PushAndSize_TestD2Ev
FN:32,32,_ZN25StackTest_PushAndPop_Test8TestBodyEv
FN:32,32,_ZN25StackTest_PushAndPop_TestC2Ev
FN:32,32,_ZN25StackTest_PushAndPop_TestD0Ev
FN:32,32,_ZN25StackTest_PushAndPop_TestD2Ev
FN:44,44,_ZN19StackTest_Peek_Test8TestBodyEv
FN:44,44,_ZN19StackTest_Peek_TestC2Ev
FN:44,44,_ZN19StackTest_Peek_TestD0Ev
FN:44,44,_ZN19StackTest_Peek_TestD2Ev
FN:52,54,_ZN23StackTest_PopEmpty_Test8TestBodyEv
FN:52,54,_ZN23StackTest_PopEmpty_TestC2Ev
FN:52,54,_ZN23StackTest_PopEmpty_TestD0Ev
FN:52,54,_ZN23StackTest_PopEmpty_TestD2Ev
FN:56,56,_ZN24StackTest_PeekEmpty_Test8TestBodyEv
FN:56,56,_ZN24StackTest_PeekEmpty_TestC2Ev
FN:56,56,_ZN24StackTest_PeekEmpty_TestD0Ev
FN:56,56,_ZN24StackTest_PeekEmpty_TestD2Ev
FN:60,60,_ZN20StackTest_Clear_Test8TestBodyEv
FN:60,60,_ZN20StackTest_Clear_TestC2Ev
FN:60,60,_ZN20StackTest_Clear_TestD0Ev
FN:60,60,_ZN20StackTest_Clear_TestD2Ev
FN:70,70,_ZN25StackTest_LIFO_Order_Test8TestBodyEv
FN:70,70,_ZN25StackTest_LIFO_Order_TestC2Ev
FN:70,70,_ZN25StackTest_LIFO_Order_TestD0Ev
FN:70,70,_ZN25StackTest_LIFO_Order_TestD2Ev
FN:81,81,_ZN20StackTest_Print_Test8TestBodyEv
FN:81,81,_ZN20StackTest_Print_TestC2Ev
FN:81,81,_ZN20StackTest_Print_TestD0Ev
FN:81,81,_ZN20StackTest_Print_TestD2Ev
FN:9,11,_ZN9StackTest5SetUpEv
FN:92,114,_ZN34StackTest_BinarySerialization_Test8TestBodyEv
FN:92,114,_ZN34StackTest_BinarySerialization_TestC2Ev
FN:92,114,_ZN34StackTest_BinarySerialization_TestD0Ev
FN:92,114,_ZN34StackTest_BinarySerialization_TestD2Ev
FNDA:3,_ZN33StackTest_MultipleOperations_Test8TestBodyEv
FNDA:3,_ZN33StackTest_MultipleOperations_TestC2Ev
FNDA:3,_ZN33StackTest_MultipleOperations_TestD0Ev
FNDA:3,_ZN33StackTest_MultipleOperations_TestD2Ev
FNDA:33,_ZN9StackTest8TearDownEv
FNDA:3,_ZN33StackTest_DefaultConstructor_Test8TestBodyEv
FNDA:3,_ZN33StackTest_DefaultConstructor_TestC2Ev
FNDA:3,_ZN33StackTest_DefaultConstructor_TestD0Ev
FNDA:3,_ZN33StackTest_DefaultConstructor_TestD2Ev
FNDA:3,_ZN26StackTest_PushAndSize_Test8TestBodyEv
FNDA:3,_ZN26StackTest_PushAndSize_TestC2Ev
FNDA:3,_ZN26StackTest_PushAndSize_TestD0Ev
FNDA:3,_ZN26StackTest_PushAndSize_TestD2Ev
FNDA:3,_ZN25StackTest_PushAndPop_Test8TestBodyEv
FNDA:3,_ZN25StackTest_PushAndPop_TestC2Ev
FNDA:3,_ZN25StackTest_PushAndPop_TestD0Ev
FNDA:3,_ZN25StackTest_PushAndPop_TestD2Ev
FNDA:3,_ZN19StackTest_Peek_Test8TestBodyEv
FNDA:3,_ZN19StackTest_Peek_TestC2Ev
FNDA:3,_ZN19StackTest_Peek_TestD0Ev
FNDA:3,_ZN19StackTest_Peek_TestD2Ev
FNDA:3,_ZN23StackTest_PopEmpty_Test8TestBodyEv
FNDA:3,_ZN23StackTest_PopEmpty_TestC2Ev
FNDA:3,_ZN23StackTest_PopEmpty_TestD0Ev
FNDA:3,_ZN23StackTest_PopEmpty_TestD2Ev
FNDA:3,_ZN24StackTest_PeekEmpty_Test8TestBodyEv
FNDA:3,_ZN24StackTest_PeekEmpty_TestC2Ev
FNDA:3,_ZN24StackTest_PeekEmpty_TestD0Ev
FNDA:3,_ZN24StackTest_PeekEmpty_TestD2Ev
FNDA:3,_ZN20StackTest_Clear_Test8TestBodyEv
FNDA:3,_ZN20StackTest_Clear_TestC2Ev
FNDA:3,_ZN20StackTest_Clear_TestD0Ev
FNDA:3,_ZN20StackTest_Clear_TestD2Ev
FNDA:3,_ZN25StackTest_LIFO_Order_Test8TestBodyEv
FNDA:3,_ZN25StackTest_LIFO_Order_TestC2Ev
FNDA:3,_ZN25StackTest_LIFO_Order_TestD0Ev
FNDA:3,_ZN25StackTest_LIFO_Order_TestD2Ev
FNDA:3,_ZN20StackTest_Print_Test8TestBodyEv
FNDA:3,_ZN20StackTest_Print_TestC2Ev
FNDA:3,_ZN20StackTest_Print_TestD0Ev
FNDA:3,_ZN20StackTest_Print_TestD2Ev
FNDA:33,_ZN9StackTest5SetUpEv
FNDA:3,_ZN34StackTest_BinarySerialization_Test8TestBodyEv
FNDA:3,_ZN34StackTest_BinarySerialization_TestC2Ev
FNDA:3,_ZN34StackTest_BinarySerialization_TestD0Ev
FNDA:3,_ZN34StackTest_BinarySerialization_TestD2Ev
FNF:46
FNH:46
DA:9,33
DA:10,33
DA:11,33
DA:13,33
DA:14,33
DA:15,33
DA:18,12
DA:19,3
DA:20,3
DA:21,3
DA:23,12
DA:24,6
DA:25,3
DA:26,3
DA:28,6
DA:29,3
DA:30,3
DA:32,12
DA:33,6
DA:34,6
DA:35,6
DA:37,3
DA:38,3
DA:39,3
DA:40,3
DA:41,3
DA:42,3
DA:44,12
DA:45,6
DA:46,6
DA:48,3
DA:49,3
DA:50,3
DA:52,12
DA:53,3
DA:54,3
DA:56,12
DA:57,3
DA:58,3
DA:60,12
DA:61,6
DA:62,6
DA:63,6
DA:65,3
DA:66,3
DA:67,3
DA:68,3
DA:70,12
DA:72,33
DA:73,30
DA:76,33
DA:77,30
DA:79,3
DA:81,12
DA:82,6
DA:83,6
DA:84,6
DA:86,3
DA:87,3
DA:89,3
DA:90,3
DA:92,12
DA:93,6
DA:94,6
DA:95,6
DA:98,3
DA:99,3
DA:100,3
DA:103,3
DA:104,3
DA:105,3
DA:106,3
DA:108,3
DA:109,3
DA:110,3
DA:111,3
DA:113,3
DA:114,3
DA:116,12
DA:117,303
DA:118,300
DA:120,3
DA:122,153
DA:123,150
DA:125,3
DA:126,3
LF:86
LH:86
end_of_record
TN:
SF:/usr/include/c++/13/bits/alloc_traits.h
FNF:0
FNH:0
DA:482,156
DA:517,183
DA:538,36
DA:542,36
DA:562,18
DA:574,588
DA:948,180
DA:949,180
LF:8
LH:8
end_of_record
TN:
SF:/usr/include/c++/13/bits/allocator.h
FNF:0
FNH:0
DA:163,2205
DA:184,2061
LF:2
LH:2
end_of_record
TN:
SF:/usr/include/c++/13/bits/basic_string.h
FN:3674,3676,_ZStplIcSt11char_traitsIcESaIcEENSt7__cxx1112basic_stringIT_T0_T1_EEPKS5_OS8_
FN:3710,3716,_ZSteqIcSt11char_traitsIcESaIcEEbRKNSt7__cxx1112basic_stringIT_T0_T1_EESA_
FN:3727,3732,_ZSteqIcSt11char_traitsIcESaIcEEbRKNSt7__cxx1112basic_stringIT_T0_T1_EEPKS5_
FN:4162,4173,_ZNSt7__cxx119to_stringEi
FN:4407,4408,_ZNKSt15__str_hash_baseIcSaIcENSt7__cxx1112basic_stringIcSt11char_traitsIcES0_EEEclERKS5_
FN:641,650,_ZNSt7__cxx1112basic_stringIcSt11char_traitsIcESaIcEEC2IS3_EEPKcRKS3_
FN:664,666,_ZNSt7__cxx1112basic_stringIcSt11char_traitsIcESaIcEEC2IS3_EEmcRKS3_
FNDA:1485,_ZStplIcSt11char_traitsIcESaIcEENSt7__cxx1112basic_stringIT_T0_T1_EEPKS5_OS8_
FNDA:588,_ZSteqIcSt11char_traitsIcESaIcEEbRKNSt7__cxx1112basic_stringIT_T0_T1_EESA_
FNDA:126,_ZSteqIcSt11char_traitsIcESaIcEEbRKNSt7__cxx1112basic_stringIT_T0_T1_EEPKS5_
FNDA:1605,_ZNSt7__cxx119to_stringEi
FNDA:1170,_ZNKSt15__str_hash_baseIcSaIcENSt7__cxx1112basic_stringIcSt11char_traitsIcES0_EEEclERKS5_
FNDA:741,_ZNSt7__cxx1112basic_stringIcSt11char_traitsIcESaIcEEC2IS3_EEPKcRKS3_
FNDA:1650,_ZNSt7__cxx1112basic_stringIcSt11char_traitsIcESaIcEEC2IS3_EEmcRKS3_
FNF:7
FNH:7
DA:355,573
DA:641,741
DA:642,741
DA:645,741
DA:646,0
DA:648,741
DA:649,741
DA:650,741
DA:664,1650
DA:665,1650
DA:666,1650
DA:3674,1485
DA:3676,1485
DA:3710,588
DA:3714,588
DA:3715,588
DA:3727,126
DA:3730,126
DA:3731,126
DA:4162,1605
DA:4167,1605
DA:4168,1605
DA:4169,1605
DA:4170,1605
DA:4171,1605
DA:4172,1605
DA:4407,1170
DA:4408,1170
LF:28
LH:27
end_of_record
TN:
SF:/usr/include/c++/13/bits/basic_string.tcc
FN:221,252,_ZNSt7__cxx1112basic_stringIcSt11char_traitsIcESaIcEE12_M_constructIPKcEEvT_S8_St20forward_iterator_tag
FN:221,252,_ZNSt7__cxx1112basic_stringIcSt11char_traitsIcESaIcEE12_M_constructIPcEEvT_S7_St20forward_iterator_tag
FN:239,239,_ZZNSt7__cxx1112basic_stringIcSt11char_traitsIcESaIcEE12_M_constructIPKcEEvT_S8_St20forward_iterator_tagEN6_GuardC2EPS4_
FN:239,239,_ZZNSt7__cxx1112basic_stringIcSt11char_traitsIcESaIcEE12_M_constructIPcEEvT_S7_St20forward_iterator_tagEN6_GuardC2EPS4_
FN:242,242,_ZZNSt7__cxx1112basic_stringIcSt11char_traitsIcESaIcEE12_M_constructIPKcEEvT_S8_St20forward_iterator_tagEN6_GuardD2Ev
FN:242,242,_ZZNSt7__cxx1112basic_stringIcSt11char_traitsIcESaIcEE12_M_constructIPcEEvT_S7_St20forward_iterator_tagEN6_GuardD2Ev
FNDA:741,_ZNSt7__cxx1112basic_stringIcSt11char_traitsIcESaIcEE12_M_constructIPKcEEvT_S8_St20forward_iterator_tag
FNDA:0,_ZNSt7__cxx1112basic_stringIcSt11char_traitsIcESaIcEE12_M_constructIPcEEvT_S7_St20forward_iterator_tag
FNDA:741,_ZZNSt7__cxx1112basic_stringIcSt11char_traitsIcESaIcEE12_M_constructIPKcEEvT_S8_St20forward_iterator_tagEN6_GuardC2EPS4_
FNDA:0,_ZZNSt7__cxx1112basic_stringIcSt11char_traitsIcESaIcEE12_M_constructIPcEEvT_S7_St20forward_iterator_tagEN6_GuardC2EPS4_
FNDA:741,_ZZNSt7__cxx1112basic_stringIcSt11char_traitsIcESaIcEE12_M_constructIPKcEEvT_S8_St20forward_iterator_tagEN6_GuardD2Ev
FNDA:0,_ZZNSt7__cxx1112basic_stringIcSt11char_traitsIcESaIcEE12_M_constructIPcEEvT_S7_St20forward_iterator_tagEN6_GuardD2Ev
FNF:6
FNH:3
DA:221,741
DA:225,741
DA:227,741
DA:229,168
DA:230,168
DA:239,741
DA:242,741
DA:245,741
DA:247,741
DA:249,741
DA:251,741
DA:252,741
LF:12
LH:12
end_of_record
TN:
SF:/usr/include/c++/13/bits/char_traits.h
FN:136,137,_ZN9__gnu_cxx11char_traitsIcE2eqERKcS3_
FN:199,206,_ZN9__gnu_cxx11char_traitsIcE6lengthEPKc
FN:366,371,_ZNSt11char_traitsIcE2ltERKcS2_
FN:374,390,_ZNSt11char_traitsIcE7compareEPKcS2_m
FN:393,400,_ZNSt11char_traitsIcE6lengthEPKc
FN:427,436,_ZNSt11char_traitsIcE4copyEPcPKcm
FNDA:0,_ZN9__gnu_cxx11char_traitsIcE2eqERKcS3_
FNDA:0,_ZN9__gnu_cxx11char_traitsIcE6lengthEPKc
FNDA:0,_ZNSt11char_traitsIcE2ltERKcS2_
FNDA:678,_ZNSt11char_traitsIcE7compareEPKcS2_m
FNDA:867,_ZNSt11char_traitsIcE6lengthEPKc
FNDA:0,_ZNSt11char_traitsIcE4copyEPcPKcm
FNF:6
FNH:2
DA:136,0
DA:137,0
DA:199,0
DA:202,0
DA:203,0
DA:204,0
DA:205,0
DA:366,0
DA:369,0
DA:370,0
DA:374,678
DA:376,678
DA:377,0
DA:379,678
DA:381,0
DA:382,0
DA:383,0
DA:384,0
DA:385,0
DA:386,0
DA:389,678
DA:393,867
DA:396,867
DA:397,0
DA:399,867
DA:427,0
DA:429,0
DA:430,0
DA:435,0
LF:29
LH:7
end_of_record
TN:
SF:/usr/include/c++/13/bits/charconv.h
FN:55,74,_ZNSt8__detail14__to_chars_lenIjEEjT_i
FN:81,110,_ZNSt8__detail18__to_chars_10_implIjEEvPcjT_
FNDA:1605,_ZNSt8__detail14__to_chars_lenIjEEjT_i
FNDA:1605,_ZNSt8__detail18__to_chars_10_implIjEEvPcjT_
FNF:2
FNH:2
DA:55,1605
DA:61,1605
DA:62,1605
DA:63,1605
DA:64,1605
DA:67,1605
DA:68,1215
DA:69,0
DA:70,0
DA:71,0
DA:72,0
DA:81,1605
DA:87,1605
DA:93,1605
DA:94,1605
DA:96,0
DA:97,0
DA:98,0
DA:99,0
DA:100,0
DA:102,1605
DA:104,1215
DA:105,1215
DA:106,1215
DA:109,390
DA:110,1605
LF:26
LH:17
end_of_record
TN:
SF:/usr/include/c++/13/bits/functional_hash.h
FN:154,154,_ZNKSt4hashIiEclEi
FN:204,206,_ZNSt10_Hash_impl4hashEPKvmm
FNDA:180,_ZNKSt4hashIiEclEi
FNDA:1170,_ZNSt10_Hash_impl4hashEPKvmm
FNF:2
FNH:2
DA:154,180
DA:204,1170
DA:206,1170
LF:3
LH:3
end_of_record
TN:
SF:/usr/include/c++/13/bits/move.h
FN:51,52,_ZSt11__addressofIN13CuckooHashMapINSt7__cxx1112basic_stringIcSt11char_traitsIcESaIcEEEiE5EntryEEPT_RS9_
FN:51,52,_ZSt11__addressofIN7HashMapINSt7__cxx1112basic_stringIcSt11char_traitsIcESaIcEEES6_E5EntryEEPT_RS9_
FN:51,52,_ZSt11__addressofIN7HashMapIibE5EntryEEPT_RS3_
FN:51,52,_ZSt11__addressofIN7HashMapIiiE5EntryEEPT_RS3_
FN:51,52,_ZSt11__addressofINSt7__cxx1112basic_stringIcSt11char_traitsIcESaIcEEEEPT_RS6_
FN:70,71,_ZSt7forwardIN13CuckooHashMapINSt7__cxx1112basic_stringIcSt11char_traitsIcESaIcEEEiE5EntryEEOT_RNSt16remove_referenceIS9_E4typeE
FN:70,71,_ZSt7forwardIN7HashMapINSt7__cxx1112basic_stringIcSt11char_traitsIcESaIcEEES6_E5EntryEEOT_RNSt16remove_referenceIS9_E4typeE
FN:70,71,_ZSt7forwardIN7HashMapIibE5EntryEEOT_RNSt16remove_referenceIS3_E4typeE
FN:70,71,_ZSt7forwardIN7HashMapIiiE5EntryEEOT_RNSt16remove_referenceIS3_E4typeE
FN:70,71,_ZSt7forwardINSt7__cxx1112basic_stringIcSt11char_traitsIcESaIcEEEEOT_RNSt16remove_referenceIS6_E4typeE
FN:70,71,_ZSt7forwardIRKNSt7__cxx1112basic_stringIcSt11char_traitsIcESaIcEEEEOT_RNSt16remove_referenceIS8_E4typeE
FN:97,98,_ZSt4moveIRN13CuckooHashMapINSt7__cxx1112basic_stringIcSt11char_traitsIcESaIcEEEiE5EntryEEONSt16remove_referenceIT_E4typeEOSB_
FN:97,98,_ZSt4moveIRN7HashMapINSt7__cxx1112basic_stringIcSt11char_traitsIcESaIcEEES6_E5EntryEEONSt16remove_referenceIT_E4typeEOSB_
FN:97,98,_ZSt4moveIRN7HashMapIibE5EntryEEONSt16remove_referenceIT_E4typeEOS5_
FN:97,98,_ZSt4moveIRN7HashMapIiiE5EntryEEONSt16remove_referenceIT_E4typeEOS5_
FN:97,98,_ZSt4moveIRNSt7__cxx1112basic_stringIcSt11char_traitsIcESaIcEEEEONSt16remove_referenceIT_E4typeEOS8_
FN:97,98,_ZSt4moveIRPNSt7__cxx1112basic_stringIcSt11char_traitsIcESaIcEEEEONSt16remove_referenceIT_E4typeEOS9_
FN:97,98,_ZSt4moveIRPNSt7__cxx1118basic_stringstreamIcSt11char_traitsIcESaIcEEEEONSt16remove_referenceIT_E4typeEOS9_
FN:97,98,_ZSt4moveIRSaIcEEONSt16remove_referenceIT_E4typeEOS3_
FNDA:12120,_ZSt11__addressofIN13CuckooHashMapINSt7__cxx1112basic_stringIcSt11char_traitsIcESaIcEEEiE5EntryEEPT_RS9_
FNDA:9696,_ZSt11__addressofIN7HashMapINSt7__cxx1112basic_stringIcSt11char_traitsIcESaIcEEES6_E5EntryEEPT_RS9_
FNDA:2727,_ZSt11__addressofIN7HashMapIibE5EntryEEPT_RS3_
FNDA:303,_ZSt11__addressofIN7HashMapIiiE5EntryEEPT_RS3_
FNDA:111,_ZSt11__addressofINSt7__cxx1112basic_stringIcSt11char_traitsIcESaIcEEEEPT_RS6_
FNDA:0,_ZSt7forwardIN13CuckooHashMapINSt7__cxx1112basic_stringIcSt11char_traitsIcESaIcEEEiE5EntryEEOT_RNSt16remove_referenceIS9_E4typeE
FNDA:0,_ZSt7forwardIN7HashMapINSt7__cxx1112basic_stringIcSt11char_traitsIcESaIcEEES6_E5EntryEEOT_RNSt16remove_referenceIS9_E4typeE
FNDA:0,_ZSt7forwardIN7HashMapIibE5EntryEEOT_RNSt16remove_referenceIS3_E4typeE
FNDA:0,_ZSt7forwardIN7HashMapIiiE5EntryEEOT_RNSt16remove_referenceIS3_E4typeE
FNDA:36,_ZSt7forwardINSt7__cxx1112basic_stringIcSt11char_traitsIcESaIcEEEEOT_RNSt16remove_referenceIS6_E4typeE
FNDA:54,_ZSt7forwardIRKNSt7__cxx1112basic_stringIcSt11char_traitsIcESaIcEEEEOT_RNSt16remove_referenceIS8_E4typeE
FNDA:0,_ZSt4moveIRN13CuckooHashMapINSt7__cxx1112basic_stringIcSt11char_traitsIcESaIcEEEiE5EntryEEONSt16remove_referenceIT_E4typeEOSB_
FNDA:0,_ZSt4moveIRN7HashMapINSt7__cxx1112basic_stringIcSt11char_traitsIcESaIcEEES6_E5EntryEEONSt16remove_referenceIT_E4typeEOSB_
FNDA:0,_ZSt4moveIRN7HashMapIibE5EntryEEONSt16remove_referenceIT_E4typeEOS5_
FNDA:0,_ZSt4moveIRN7HashMapIiiE5EntryEEONSt16remove_referenceIT_E4typeEOS5_
FNDA:1503,_ZSt4moveIRNSt7__cxx1112basic_stringIcSt11char_traitsIcESaIcEEEEONSt16remove_referenceIT_E4typeEOS8_
FNDA:0,_ZSt4moveIRPNSt7__cxx1112basic_stringIcSt11char_traitsIcESaIcEEEEONSt16remove_referenceIT_E4typeEOS9_
FNDA:0,_ZSt4moveIRPNSt7__cxx1118basic_stringstreamIcSt11char_traitsIcESaIcEEEEONSt16remove_referenceIT_E4typeEOS9_
FNDA:0,_ZSt4moveIRSaIcEEONSt16remove_referenceIT_E4typeEOS3_
FNF:19
FNH:8
DA:51,24957
DA:52,24957
DA:70,90
DA:71,90
DA:97,1503
DA:98,1503
LF:6
LH:6
end_of_record
TN:
SF:/usr/include/c++/13/bits/new_allocator.h
FN:104,104,_ZNSt15__new_allocatorIN13CuckooHashMapINSt7__cxx1112basic_stringIcSt11char_traitsIcESaIcEEEiE5EntryEED2Ev
FN:104,104,_ZNSt15__new_allocatorIN7HashMapINSt7__cxx1112basic_stringIcSt11char_traitsIcESaIcEEES6_E5EntryEED2Ev
FN:104,104,_ZNSt15__new_allocatorIN7HashMapIibE5EntryEED2Ev
FN:104,104,_ZNSt15__new_allocatorIN7HashMapIiiE5EntryEED2Ev
FN:104,104,_ZNSt15__new_allocatorINSt7__cxx1112basic_stringIcSt11char_traitsIcESaIcEEEED2Ev
FN:104,104,_ZNSt15__new_allocatorIcED2Ev
FN:126,152,_ZNSt15__new_allocatorIN13CuckooHashMapINSt7__cxx1112basic_stringIcSt11char_traitsIcESaIcEEEiE5EntryEE8allocateEmPKv
FN:126,152,_ZNSt15__new_allocatorIN7HashMapINSt7__cxx1112basic_stringIcSt11char_traitsIcESaIcEEES6_E5EntryEE8allocateEmPKv
FN:126,152,_ZNSt15__new_allocatorIN7HashMapIibE5EntryEE8allocateEmPKv
FN:126,152,_ZNSt15__new_allocatorIN7HashMapIiiE5EntryEE8allocateEmPKv
FN:126,152,_ZNSt15__new_allocatorINSt7__cxx1112basic_stringIcSt11char_traitsIcESaIcEEEE8allocateEmPKv
FN:156,173,_ZNSt15__new_allocatorIN13CuckooHashMapINSt7__cxx1112basic_stringIcSt11char_traitsIcESaIcEEEiE5EntryEE10deallocateEPS8_m
FN:156,173,_ZNSt15__new_allocatorIN7HashMapINSt7__cxx1112basic_stringIcSt11char_traitsIcESaIcEEES6_E5EntryEE10deallocateEPS8_m
FN:156,173,_ZNSt15__new_allocatorIN7HashMapIibE5EntryEE10deallocateEPS2_m
FN:156,173,_ZNSt15__new_allocatorIN7HashMapIiiE5EntryEE10deallocateEPS2_m
FN:156,173,_ZNSt15__new_allocatorINSt7__cxx1112basic_stringIcSt11char_traitsIcESaIcEEEE10deallocateEPS5_m
FNDA:60,_ZNSt15__new_allocatorIN13CuckooHashMapINSt7__cxx1112basic_stringIcSt11char_traitsIcESaIcEEEiE5EntryEED2Ev
FNDA:48,_ZNSt15__new_allocatorIN7HashMapINSt7__cxx1112basic_stringIcSt11char_traitsIcESaIcEEES6_E5EntryEED2Ev
FNDA:27,_ZNSt15__new_allocatorIN7HashMapIibE5EntryEED2Ev
FNDA:3,_ZNSt15__new_allocatorIN7HashMapIiiE5EntryEED2Ev
FNDA:42,_ZNSt15__new_allocatorINSt7__cxx1112basic_stringIcSt11char_traitsIcESaIcEEEED2Ev
FNDA:2391,_ZNSt15__new_allocatorIcED2Ev
FNDA:60,_ZNSt15__new_allocatorIN13CuckooHashMapINSt7__cxx1112basic_stringIcSt11char_traitsIcESaIcEEEiE5EntryEE8allocateEmPKv
FNDA:48,_ZNSt15__new_allocatorIN7HashMapINSt7__cxx1112basic_stringIcSt11char_traitsIcESaIcEEES6_E5EntryEE8allocateEmPKv
FNDA:27,_ZNSt15__new_allocatorIN7HashMapIibE5EntryEE8allocateEmPKv
FNDA:3,_ZNSt15__new_allocatorIN7HashMapIiiE5EntryEE8allocateEmPKv
FNDA:18,_ZNSt15__new_allocatorINSt7__cxx1112basic_stringIcSt11char_traitsIcESaIcEEEE8allocateEmPKv
FNDA:60,_ZNSt15__new_allocatorIN13CuckooHashMapINSt7__cxx1112basic_stringIcSt11char_traitsIcESaIcEEEiE5EntryEE10deallocateEPS8_m
FNDA:48,_ZNSt15__new_allocatorIN7HashMapINSt7__cxx1112basic_stringIcSt11char_traitsIcESaIcEEES6_E5EntryEE10deallocateEPS8_m
FNDA:27,_ZNSt15__new_allocatorIN7HashMapIibE5EntryEE10deallocateEPS2_m
FNDA:3,_ZNSt15__new_allocatorIN7HashMapIiiE5EntryEE10deallocateEPS2_m
FNDA:45,_ZNSt15__new_allocatorINSt7__cxx1112basic_stringIcSt11char_traitsIcESaIcEEEE10deallocateEPS5_m
FNF:16
FNH:16
DA:88,2202
DA:104,2571
DA:126,156
DA:134,156
DA:138,0
DA:139,0
DA:140,0
DA:151,156
DA:156,183
DA:172,183
DA:183,588
DA:191,36
DA:198,18
DA:233,744
LF:14
LH:11
end_of_record
TN:
SF:/usr/include/c++/13/bits/stl_algobase.h
FN:233,241,_ZSt3minImERKT_S2_S2_
FN:257,265,_ZSt3maxIiERKT_S2_S2_
FN:257,265,_ZSt3maxImERKT_S2_S2_
FN:316,318,_ZSt12__niter_baseIPN13CuckooHashMapINSt7__cxx1112basic_stringIcSt11char_traitsIcESaIcEEEiE5EntryEET_SA_
FN:316,318,_ZSt12__niter_baseIPN7HashMapINSt7__cxx1112basic_stringIcSt11char_traitsIcESaIcEEES6_E5EntryEET_SA_
FN:316,318,_ZSt12__niter_baseIPN7HashMapIibE5EntryEET_S4_
FN:316,318,_ZSt12__niter_baseIPN7HashMapIiiE5EntryEET_S4_
FN:316,318,_ZSt12__niter_baseIPNSt7__cxx1112basic_stringIcSt11char_traitsIcESaIcEEEET_S7_
FNDA:588,_ZSt3minImERKT_S2_S2_
FNDA:3429,_ZSt3maxIiERKT_S2_S2_
FNDA:156,_ZSt3maxImERKT_S2_S2_
FNDA:180,_ZSt12__niter_baseIPN13CuckooHashMapINSt7__cxx1112basic_stringIcSt11char_traitsIcESaIcEEEiE5EntryEET_SA_
FNDA:144,_ZSt12__niter_baseIPN7HashMapINSt7__cxx1112basic_stringIcSt11char_traitsIcESaIcEEES6_E5EntryEET_SA_
FNDA:81,_ZSt12__niter_baseIPN7HashMapIibE5EntryEET_S4_
FNDA:9,_ZSt12__niter_baseIPN7HashMapIiiE5EntryEET_S4_
FNDA:108,_ZSt12__niter_baseIPNSt7__cxx1112basic_stringIcSt11char_traitsIcESaIcEEEET_S7_
FNF:8
FNH:8
DA:233,588
DA:238,588
DA:239,0
DA:240,588
DA:257,3585
DA:262,3585
DA:263,1854
DA:264,1731
DA:316,522
DA:318,522
LF:10
LH:9
end_of_record
TN:
SF:/usr/include/c++/13/bits/stl_construct.h
FN:109,120,_ZSt10_ConstructIN13CuckooHashMapINSt7__cxx1112basic_stringIcSt11char_traitsIcESaIcEEEiE5EntryEJEEvPT_DpOT0_
FN:109,120,_ZSt10_ConstructIN7HashMapINSt7__cxx1112basic_stringIcSt11char_traitsIcESaIcEEES6_E5EntryEJEEvPT_DpOT0_
FN:109,120,_ZSt10_ConstructIN7HashMapIibE5EntryEJEEvPT_DpOT0_
FN:109,120,_ZSt10_ConstructIN7HashMapIiiE5EntryEJEEvPT_DpOT0_
FN:146,153,_ZSt8_DestroyIN13CuckooHashMapINSt7__cxx1112basic_stringIcSt11char_traitsIcESaIcEEEiE5EntryEEvPT_
FN:146,153,_ZSt8_DestroyIN7HashMapINSt7__cxx1112basic_stringIcSt11char_traitsIcESaIcEEES6_E5EntryEEvPT_
FN:146,153,_ZSt8_DestroyINSt7__cxx1112basic_stringIcSt11char_traitsIcESaIcEEEEvPT_
FN:160,164,_ZNSt12_Destroy_auxILb0EE9__destroyIPN13CuckooHashMapINSt7__cxx1112basic_stringIcSt11char_traitsIcESaIcEEEiE5EntryEEEvT_SC_
FN:160,164,_ZNSt12_Destroy_auxILb0EE9__destroyIPN7HashMapINSt7__cxx1112basic_stringIcSt11char_traitsIcESaIcEEES8_E5EntryEEEvT_SC_
FN:160,164,_ZNSt12_Destroy_auxILb0EE9__destroyIPNSt7__cxx1112basic_stringIcSt11char_traitsIcESaIcEEEEEvT_S9_
FN:172,172,_ZNSt12_Destroy_auxILb1EE9__destroyIPN7HashMapIibE5EntryEEEvT_S6_
FN:172,172,_ZNSt12_Destroy_auxILb1EE9__destroyIPN7HashMapIiiE5EntryEEEvT_S6_
FN:182,197,_ZSt8_DestroyIPN13CuckooHashMapINSt7__cxx1112basic_stringIcSt11char_traitsIcESaIcEEEiE5EntryEEvT_SA_
FN:182,197,_ZSt8_DestroyIPN7HashMapINSt7__cxx1112basic_stringIcSt11char_traitsIcESaIcEEES6_E5EntryEEvT_SA_
FN:182,197,_ZSt8_DestroyIPN7HashMapIibE5EntryEEvT_S4_
FN:182,197,_ZSt8_DestroyIPN7HashMapIiiE5EntryEEvT_S4_
FN:182,197,_ZSt8_DestroyIPNSt7__cxx1112basic_stringIcSt11char_traitsIcESaIcEEEEvT_S7_
FNDA:6060,_ZSt10_ConstructIN13CuckooHashMapINSt7__cxx1112basic_stringIcSt11char_traitsIcESaIcEEEiE5EntryEJEEvPT_DpOT0_
FNDA:4848,_ZSt10_ConstructIN7HashMapINSt7__cxx1112basic_stringIcSt11char_traitsIcESaIcEEES6_E5EntryEJEEvPT_DpOT0_
FNDA:2727,_ZSt10_ConstructIN7HashMapIibE5EntryEJEEvPT_DpOT0_
FNDA:303,_ZSt10_ConstructIN7HashMapIiiE5EntryEJEEvPT_DpOT0_
FNDA:6060,_ZSt8_DestroyIN13CuckooHashMapINSt7__cxx1112basic_stringIcSt11char_traitsIcESaIcEEEiE5EntryEEvPT_
FNDA:4848,_ZSt8_DestroyIN7HashMapINSt7__cxx1112basic_stringIcSt11char_traitsIcESaIcEEES6_E5EntryEEvPT_
FNDA:57,_ZSt8_DestroyINSt7__cxx1112basic_stringIcSt11char_traitsIcESaIcEEEEvPT_
FNDA:60,_ZNSt12_Destroy_auxILb0EE9__destroyIPN13CuckooHashMapINSt7__cxx1112basic_stringIcSt11char_traitsIcESaIcEEEiE5EntryEEEvT_SC_
FNDA:48,_ZNSt12_Destroy_auxILb0EE9__destroyIPN7HashMapINSt7__cxx1112basic_stringIcSt11char_traitsIcESaIcEEES8_E5EntryEEEvT_SC_
FNDA:42,_ZNSt12_Destroy_auxILb0EE9__destroyIPNSt7__cxx1112basic_stringIcSt11char_traitsIcESaIcEEEEEvT_S9_
FNDA:27,_ZNSt12_Destroy_auxILb1EE9__destroyIPN7HashMapIibE5EntryEEEvT_S6_
FNDA:3,_ZNSt12_Destroy_auxILb1EE9__destroyIPN7HashMapIiiE5EntryEEEvT_S6_
FNDA:60,_ZSt8_DestroyIPN13CuckooHashMapINSt7__cxx1112basic_stringIcSt11char_traitsIcESaIcEEEiE5EntryEEvT_SA_
FNDA:48,_ZSt8_DestroyIPN7HashMapINSt7__cxx1112basic_stringIcSt11char_traitsIcESaIcEEES6_E5EntryEEvT_SA_
FNDA:27,_ZSt8_DestroyIPN7HashMapIibE5EntryEEvT_S4_
FNDA:3,_ZSt8_DestroyIPN7HashMapIiiE5EntryEEvT_S4_
FNDA:42,_ZSt8_DestroyIPNSt7__cxx1112basic_stringIcSt11char_traitsIcESaIcEEEEvT_S7_
FNF:17
FNH:17
DA:109,13938
DA:119,13938
DA:120,13938
DA:146,10965
DA:151,10965
DA:153,10965
DA:160,150
DA:162,11115
DA:163,10965
DA:164,150
DA:172,30
DA:182,180
DA:196,180
DA:197,180
LF:14
LH:14
end_of_record
TN:
SF:/usr/include/c++/13/bits/stl_iterator.h
FN:1076,1077,_ZN9__gnu_cxx17__normal_iteratorIPN13CuckooHashMapINSt7__cxx1112basic_stringIcSt11char_traitsIcESaIcEEEiE5EntryESt6vectorIS9_SaIS9_EEEC2ERKSA_
FN:1076,1077,_ZN9__gnu_cxx17__normal_iteratorIPN7HashMapINSt7__cxx1112basic_stringIcSt11char_traitsIcESaIcEEES7_E5EntryESt6vectorIS9_SaIS9_EEEC2ERKSA_
FN:1076,1077,_ZN9__gnu_cxx17__normal_iteratorIPN7HashMapIibE5EntryESt6vectorIS3_SaIS3_EEEC2ERKS4_
FN:1076,1077,_ZN9__gnu_cxx17__normal_iteratorIPNSt7__cxx1112basic_stringIcSt11char_traitsIcESaIcEEESt6vectorIS6_SaIS6_EEEC2ERKS7_
FN:1099,1100,_ZNK9__gnu_cxx17__normal_iteratorIPN13CuckooHashMapINSt7__cxx1112basic_stringIcSt11char_traitsIcESaIcEEEiE5EntryESt6vectorIS9_SaIS9_EEEdeEv
FN:1099,1100,_ZNK9__gnu_cxx17__normal_iteratorIPN7HashMapINSt7__cxx1112basic_stringIcSt11char_traitsIcESaIcEEES7_E5EntryESt6vectorIS9_SaIS9_EEEdeEv
FN:1099,1100,_ZNK9__gnu_cxx17__normal_iteratorIPN7HashMapIibE5EntryESt6vectorIS3_SaIS3_EEEdeEv
FN:1099,1100,_ZNK9__gnu_cxx17__normal_iteratorIPNSt7__cxx1112basic_stringIcSt11char_traitsIcESaIcEEESt6vectorIS6_SaIS6_EEEdeEv
FN:1104,1105,_ZNK9__gnu_cxx17__normal_iteratorIPNSt7__cxx1112basic_stringIcSt11char_traitsIcESaIcEEESt6vectorIS6_SaIS6_EEEptEv
FN:1109,1113,_ZN9__gnu_cxx17__normal_iteratorIPN13CuckooHashMapINSt7__cxx1112basic_stringIcSt11char_traitsIcESaIcEEEiE5EntryESt6vectorIS9_SaIS9_EEEppEv
FN:1109,1113,_ZN9__gnu_cxx17__normal_iteratorIPN7HashMapINSt7__cxx1112basic_stringIcSt11char_traitsIcESaIcEEES7_E5EntryESt6vectorIS9_SaIS9_EEEppEv
FN:1109,1113,_ZN9__gnu_cxx17__normal_iteratorIPN7HashMapIibE5EntryESt6vectorIS3_SaIS3_EEEppEv
FN:1109,1113,_ZN9__gnu_cxx17__normal_iteratorIPNSt7__cxx1112basic_stringIcSt11char_traitsIcESaIcEEESt6vectorIS6_SaIS6_EEEppEv
FN:1123,1127,_ZN9__gnu_cxx17__normal_iteratorIPNSt7__cxx1112basic_stringIcSt11char_traitsIcESaIcEEESt6vectorIS6_SaIS6_EEEmmEv
FN:1162,1163,_ZNK9__gnu_cxx17__normal_iteratorIPN13CuckooHashMapINSt7__cxx1112basic_stringIcSt11char_traitsIcESaIcEEEiE5EntryESt6vectorIS9_SaIS9_EEE4baseEv
FN:1162,1163,_ZNK9__gnu_cxx17__normal_iteratorIPN7HashMapINSt7__cxx1112basic_stringIcSt11char_traitsIcESaIcEEES7_E5EntryESt6vectorIS9_SaIS9_EEE4baseEv
FN:1162,1163,_ZNK9__gnu_cxx17__normal_iteratorIPN7HashMapIibE5EntryESt6vectorIS3_SaIS3_EEE4baseEv
FN:1162,1163,_ZNK9__gnu_cxx17__normal_iteratorIPNSt7__cxx1112basic_stringIcSt11char_traitsIcESaIcEEESt6vectorIS6_SaIS6_EEE4baseEv
FN:1225,1228,_ZN9__gnu_cxxeqIPNSt7__cxx1112basic_stringIcSt11char_traitsIcESaIcEEESt6vectorIS6_SaIS6_EEEEbRKNS_17__normal_iteratorIT_T0_EESG_
FN:1241,1244,_ZN9__gnu_cxxneIPN13CuckooHashMapINSt7__cxx1112basic_stringIcSt11char_traitsIcESaIcEEEiE5EntryESt6vectorIS9_SaIS9_EEEEbRKNS_17__normal_iteratorIT_T0_EESJ_
FN:1241,1244,_ZN9__gnu_cxxneIPN7HashMapINSt7__cxx1112basic_stringIcSt11char_traitsIcESaIcEEES7_E5EntryESt6vectorIS9_SaIS9_EEEEbRKNS_17__normal_iteratorIT_T0_EESJ_
FN:1241,1244,_ZN9__gnu_cxxneIPN7HashMapIibE5EntryESt6vectorIS3_SaIS3_EEEEbRKNS_17__normal_iteratorIT_T0_EESD_
FN:1241,1244,_ZN9__gnu_cxxneIPNSt7__cxx1112basic_stringIcSt11char_traitsIcESaIcEEESt6vectorIS6_SaIS6_EEEEbRKNS_17__normal_iteratorIT_T0_EESG_
FN:1334,1337,_ZN9__gnu_cxxmiIPNSt7__cxx1112basic_stringIcSt11char_traitsIcESaIcEEESt6vectorIS6_SaIS6_EEEENS_17__normal_iteratorIT_T0_E15difference_typeERKSE_SH_
FN:195,198,_ZNSt16reverse_iteratorIN9__gnu_cxx17__normal_iteratorIPNSt7__cxx1112basic_stringIcSt11char_traitsIcESaIcEEESt6vectorIS7_SaIS7_EEEEEC2ESC_
FN:248,250,_ZNKSt16reverse_iteratorIN9__gnu_cxx17__normal_iteratorIPNSt7__cxx1112basic_stringIcSt11char_traitsIcESaIcEEESt6vectorIS7_SaIS7_EEEEE4baseEv
FN:277,288,_ZNKSt16reverse_iteratorIN9__gnu_cxx17__normal_iteratorIPNSt7__cxx1112basic_stringIcSt11char_traitsIcESaIcEEESt6vectorIS7_SaIS7_EEEEEptEv
FN:296,300,_ZNSt16reverse_iteratorIN9__gnu_cxx17__normal_iteratorIPNSt7__cxx1112basic_stringIcSt11char_traitsIcESaIcEEESt6vectorIS7_SaIS7_EEEEEppEv
FN:430,431,_ZNSt16reverse_iteratorIN9__gnu_cxx17__normal_iteratorIPNSt7__cxx1112basic_stringIcSt11char_traitsIcESaIcEEESt6vectorIS7_SaIS7_EEEEE13_S_to_pointerISC_EES8_T_
FN:448,450,_ZSteqIN9__gnu_cxx17__normal_iteratorIPNSt7__cxx1112basic_stringIcSt11char_traitsIcESaIcEEESt6vectorIS7_SaIS7_EEEEEbRKSt16reverse_iteratorIT_ESH_
FN:462,464,_ZStneIN9__gnu_cxx17__normal_iteratorIPNSt7__cxx1112basic_stringIcSt11char_traitsIcESaIcEEESt6vectorIS7_SaIS7_EEEEEbRKSt16reverse_iteratorIT_ESH_
FNDA:12,_ZN9__gnu_cxx17__normal_iteratorIPN13CuckooHashMapINSt7__cxx1112basic_stringIcSt11char_traitsIcESaIcEEEiE5EntryESt6vectorIS9_SaIS9_EEEC2ERKSA_
FNDA:12,_ZN9__gnu_cxx17__normal_iteratorIPN7HashMapINSt7__cxx1112basic_stringIcSt11char_traitsIcESaIcEEES7_E5EntryESt6vectorIS9_SaIS9_EEEC2ERKSA_
FNDA:6,_ZN9__gnu_cxx17__normal_iteratorIPN7HashMapIibE5EntryESt6vectorIS3_SaIS3_EEEC2ERKS4_
FNDA:57,_ZN9__gnu_cxx17__normal_iteratorIPNSt7__cxx1112basic_stringIcSt11char_traitsIcESaIcEEESt6vectorIS6_SaIS6_EEEC2ERKS7_
FNDA:606,_ZNK9__gnu_cxx17__normal_iteratorIPN13CuckooHashMapINSt7__cxx1112basic_stringIcSt11char_traitsIcESaIcEEEiE5EntryESt6vectorIS9_SaIS9_EEEdeEv
FNDA:606,_ZNK9__gnu_cxx17__normal_iteratorIPN7HashMapINSt7__cxx1112basic_stringIcSt11char_traitsIcESaIcEEES7_E5EntryESt6vectorIS9_SaIS9_EEEdeEv
FNDA:303,_ZNK9__gnu_cxx17__normal_iteratorIPN7HashMapIibE5EntryESt6vectorIS3_SaIS3_EEEdeEv
FNDA:9,_ZNK9__gnu_cxx17__normal_iteratorIPNSt7__cxx1112basic_stringIcSt11char_traitsIcESaIcEEESt6vectorIS6_SaIS6_EEEdeEv
FNDA:18,_ZNK9__gnu_cxx17__normal_iteratorIPNSt7__cxx1112basic_stringIcSt11char_traitsIcESaIcEEESt6vectorIS6_SaIS6_EEEptEv
FNDA:606,_ZN9__gnu_cxx17__normal_iteratorIPN13CuckooHashMapINSt7__cxx1112basic_stringIcSt11char_traitsIcESaIcEEEiE5EntryESt6vectorIS9_SaIS9_EEEppEv
FNDA:606,_ZN9__gnu_cxx17__normal_iteratorIPN7HashMapINSt7__cxx1112basic_stringIcSt11char_traitsIcESaIcEEES7_E5EntryESt6vectorIS9_SaIS9_EEEppEv
FNDA:303,_ZN9__gnu_cxx17__normal_iteratorIPN7HashMapIibE5EntryESt6vectorIS3_SaIS3_EEEppEv
FNDA:9,_ZN9__gnu_cxx17__normal_iteratorIPNSt7__cxx1112basic_stringIcSt11char_traitsIcESaIcEEESt6vectorIS6_SaIS6_EEEppEv
FNDA:27,_ZN9__gnu_cxx17__normal_iteratorIPNSt7__cxx1112basic_stringIcSt11char_traitsIcESaIcEEESt6vectorIS6_SaIS6_EEEmmEv
FNDA:1224,_ZNK9__gnu_cxx17__normal_iteratorIPN13CuckooHashMapINSt7__cxx1112basic_stringIcSt11char_traitsIcESaIcEEEiE5EntryESt6vectorIS9_SaIS9_EEE4baseEv
FNDA:1224,_ZNK9__gnu_cxx17__normal_iteratorIPN7HashMapINSt7__cxx1112basic_stringIcSt11char_traitsIcESaIcEEES7_E5EntryESt6vectorIS9_SaIS9_EEE4baseEv
FNDA:612,_ZNK9__gnu_cxx17__normal_iteratorIPN7HashMapIibE5EntryESt6vectorIS3_SaIS3_EEE4baseEv
FNDA:120,_ZNK9__gnu_cxx17__normal_iteratorIPNSt7__cxx1112basic_stringIcSt11char_traitsIcESaIcEEESt6vectorIS6_SaIS6_EEE4baseEv
FNDA:12,_ZN9__gnu_cxxeqIPNSt7__cxx1112basic_stringIcSt11char_traitsIcESaIcEEESt6vectorIS6_SaIS6_EEEEbRKNS_17__normal_iteratorIT_T0_EESG_
FNDA:612,_ZN9__gnu_cxxneIPN13CuckooHashMapINSt7__cxx1112basic_stringIcSt11char_traitsIcESaIcEEEiE5EntryESt6vectorIS9_SaIS9_EEEEbRKNS_17__normal_iteratorIT_T0_EESJ_
FNDA:612,_ZN9__gnu_cxxneIPN7HashMapINSt7__cxx1112basic_stringIcSt11char_traitsIcESaIcEEES7_E5EntryESt6vectorIS9_SaIS9_EEEEbRKNS_17__normal_iteratorIT_T0_EESJ_
FNDA:306,_ZN9__gnu_cxxneIPN7HashMapIibE5EntryESt6vectorIS3_SaIS3_EEEEbRKNS_17__normal_iteratorIT_T0_EESD_
FNDA:12,_ZN9__gnu_cxxneIPNSt7__cxx1112basic_stringIcSt11char_traitsIcESaIcEEESt6vectorIS6_SaIS6_EEEEbRKNS_17__normal_iteratorIT_T0_EESG_
FNDA:18,_ZN9__gnu_cxxmiIPNSt7__cxx1112basic_stringIcSt11char_traitsIcESaIcEEESt6vectorIS6_SaIS6_EEEENS_17__normal_iteratorIT_T0_E15difference_typeERKSE_SH_
FNDA:15,_ZNSt16reverse_iteratorIN9__gnu_cxx17__normal_iteratorIPNSt7__cxx1112basic_stringIcSt11char_traitsIcESaIcEEESt6vectorIS7_SaIS7_EEEEEC2ESC_
FNDA:24,_ZNKSt16reverse_iteratorIN9__gnu_cxx17__normal_iteratorIPNSt7__cxx1112basic_stringIcSt11char_traitsIcESaIcEEESt6vectorIS7_SaIS7_EEEEE4baseEv
FNDA:18,_ZNKSt16reverse_iteratorIN9__gnu_cxx17__normal_iteratorIPNSt7__cxx1112basic_stringIcSt11char_traitsIcESaIcEEESt6vectorIS7_SaIS7_EEEEEptEv
FNDA:9,_ZNSt16reverse_iteratorIN9__gnu_cxx17__normal_iteratorIPNSt7__cxx1112basic_stringIcSt11char_traitsIcESaIcEEESt6vectorIS7_SaIS7_EEEEEppEv
FNDA:18,_ZNSt16reverse_iteratorIN9__gnu_cxx17__normal_iteratorIPNSt7__cxx1112basic_stringIcSt11char_traitsIcESaIcEEESt6vectorIS7_SaIS7_EEEEE13_S_to_pointerISC_EES8_T_
FNDA:12,_ZSteqIN9__gnu_cxx17__normal_iteratorIPNSt7__cxx1112basic_stringIcSt11char_traitsIcESaIcEEESt6vectorIS7_SaIS7_EEEEEbRKSt16reverse_iteratorIT_ESH_
FNDA:12,_ZStneIN9__gnu_cxx17__normal_iteratorIPNSt7__cxx1112basic_stringIcSt11char_traitsIcESaIcEEESt6vectorIS7_SaIS7_EEEEEbRKSt16reverse_iteratorIT_ESH_
FNF:31
FNH:31
DA:195,15
DA:197,15
DA:198,15
DA:248,24
DA:250,24
DA:277,18
DA:285,18
DA:286,18
DA:287,18
DA:296,9
DA:298,9
DA:299,9
DA:430,18
DA:431,18
DA:448,12
DA:450,12
DA:462,12
DA:464,12
DA:1076,87
DA:1077,87
DA:1099,1524
DA:1100,1524
DA:1104,18
DA:1105,18
DA:1109,1524
DA:1111,1524
DA:1112,1524
DA:1123,27
DA:1125,27
DA:1126,27
DA:1162,3180
DA:1163,3180
DA:1225,12
DA:1228,12
DA:1241,1542
DA:1244,1542
DA:1334,18
DA:1337,18
LF:38
LH:38
end_of_record
TN:
SF:/usr/include/c++/13/bits/stl_iterator_base_funcs.h
FNF:0
FNH:0
DA:106,741
DA:151,1482
DA:152,1482
LF:3
LH:3
end_of_record
TN:
SF:/usr/include/c++/13/bits/stl_iterator_base_types.h
FNF:0
FNH:0
DA:240,741
LF:1
LH:1
end_of_record
TN:
SF:/usr/include/c++/13/bits/stl_uninitialized.h
FN:1069,1079,_ZSt19__relocate_object_aIN13CuckooHashMapINSt7__cxx1112basic_stringIcSt11char_traitsIcESaIcEEEiE5EntryES8_SaIS8_EEvPT_PT0_RT1_
FN:1069,1079,_ZSt19__relocate_object_aIN7HashMapINSt7__cxx1112basic_stringIcSt11char_traitsIcESaIcEEES6_E5EntryES8_SaIS8_EEvPT_PT0_RT1_
FN:1069,1079,_ZSt19__relocate_object_aIN7HashMapIibE5EntryES2_SaIS2_EEvPT_PT0_RT1_
FN:1069,1079,_ZSt19__relocate_object_aIN7HashMapIiiE5EntryES2_SaIS2_EEvPT_PT0_RT1_
FN:1069,1079,_ZSt19__relocate_object_aINSt7__cxx1112basic_stringIcSt11char_traitsIcESaIcEEES5_SaIS5_EEvPT_PT0_RT1_
FN:1091,1108,_ZSt14__relocate_a_1IPN13CuckooHashMapINSt7__cxx1112basic_stringIcSt11char_traitsIcESaIcEEEiE5EntryES9_SaIS8_EET0_T_SC_SB_RT1_
FN:1091,1108,_ZSt14__relocate_a_1IPN7HashMapINSt7__cxx1112basic_stringIcSt11char_traitsIcESaIcEEES6_E5EntryES9_SaIS8_EET0_T_SC_SB_RT1_
FN:1091,1108,_ZSt14__relocate_a_1IPN7HashMapIibE5EntryES3_SaIS2_EET0_T_S6_S5_RT1_
FN:1091,1108,_ZSt14__relocate_a_1IPN7HashMapIiiE5EntryES3_SaIS2_EET0_T_S6_S5_RT1_
FN:1091,1108,_ZSt14__relocate_a_1IPNSt7__cxx1112basic_stringIcSt11char_traitsIcESaIcEEES6_SaIS5_EET0_T_S9_S8_RT1_
FN:1141,1150,_ZSt12__relocate_aIPN13CuckooHashMapINSt7__cxx1112basic_stringIcSt11char_traitsIcESaIcEEEiE5EntryES9_SaIS8_EET0_T_SC_SB_RT1_
FN:1141,1150,_ZSt12__relocate_aIPN7HashMapINSt7__cxx1112basic_stringIcSt11char_traitsIcESaIcEEES6_E5EntryES9_SaIS8_EET0_T_SC_SB_RT1_
FN:1141,1150,_ZSt12__relocate_aIPN7HashMapIibE5EntryES3_SaIS2_EET0_T_S6_S5_RT1_
FN:1141,1150,_ZSt12__relocate_aIPN7HashMapIiiE5EntryES3_SaIS2_EET0_T_S6_S5_RT1_
FN:1141,1150,_ZSt12__relocate_aIPNSt7__cxx1112basic_stringIcSt11char_traitsIcESaIcEEES6_SaIS5_EET0_T_S9_S8_RT1_
FN:637,651,_ZNSt27__uninitialized_default_n_1ILb0EE18__uninit_default_nIPN13CuckooHashMapINSt7__cxx1112basic_stringIcSt11char_traitsIcESaIcEEEiE5EntryEmEET_SC_T0_
FN:637,651,_ZNSt27__uninitialized_default_n_1ILb0EE18__uninit_default_nIPN7HashMapINSt7__cxx1112basic_stringIcSt11char_traitsIcESaIcEEES8_E5EntryEmEET_SC_T0_
FN:637,651,_ZNSt27__uninitialized_default_n_1ILb0EE18__uninit_default_nIPN7HashMapIibE5EntryEmEET_S6_T0_
FN:637,651,_ZNSt27__uninitialized_default_n_1ILb0EE18__uninit_default_nIPN7HashMapIiiE5EntryEmEET_S6_T0_
FN:696,713,_ZSt25__uninitialized_default_nIPN13CuckooHashMapINSt7__cxx1112basic_stringIcSt11char_traitsIcESaIcEEEiE5EntryEmET_SA_T0_
FN:696,713,_ZSt25__uninitialized_default_nIPN7HashMapINSt7__cxx1112basic_stringIcSt11char_traitsIcESaIcEEES6_E5EntryEmET_SA_T0_
FN:696,713,_ZSt25__uninitialized_default_nIPN7HashMapIibE5EntryEmET_S4_T0_
FN:696,713,_ZSt25__uninitialized_default_nIPN7HashMapIiiE5EntryEmET_S4_T0_
FN:777,779,_ZSt27__uninitialized_default_n_aIPN13CuckooHashMapINSt7__cxx1112basic_stringIcSt11char_traitsIcESaIcEEEiE5EntryEmS8_ET_SA_T0_RSaIT1_E
FN:777,779,_ZSt27__uninitialized_default_n_aIPN7HashMapINSt7__cxx1112basic_stringIcSt11char_traitsIcESaIcEEES6_E5EntryEmS8_ET_SA_T0_RSaIT1_E
FN:777,779,_ZSt27__uninitialized_default_n_aIPN7HashMapIibE5EntryEmS2_ET_S4_T0_RSaIT1_E
FN:777,779,_ZSt27__uninitialized_default_n_aIPN7HashMapIiiE5EntryEmS2_ET_S4_T0_RSaIT1_E
FNDA:0,_ZSt19__relocate_object_aIN13CuckooHashMapINSt7__cxx1112basic_stringIcSt11char_traitsIcESaIcEEEiE5EntryES8_SaIS8_EEvPT_PT0_RT1_
FNDA:0,_ZSt19__relocate_object_aIN7HashMapINSt7__cxx1112basic_stringIcSt11char_traitsIcESaIcEEES6_E5EntryES8_SaIS8_EEvPT_PT0_RT1_
FNDA:0,_ZSt19__relocate_object_aIN7HashMapIibE5EntryES2_SaIS2_EEvPT_PT0_RT1_
FNDA:0,_ZSt19__relocate_object_aIN7HashMapIiiE5EntryES2_SaIS2_EEvPT_PT0_RT1_
FNDA:18,_ZSt19__relocate_object_aINSt7__cxx1112basic_stringIcSt11char_traitsIcESaIcEEES5_SaIS5_EEvPT_PT0_RT1_
FNDA:60,_ZSt14__relocate_a_1IPN13CuckooHashMapINSt7__cxx1112basic_stringIcSt11char_traitsIcESaIcEEEiE5EntryES9_SaIS8_EET0_T_SC_SB_RT1_
FNDA:48,_ZSt14__relocate_a_1IPN7HashMapINSt7__cxx1112basic_stringIcSt11char_traitsIcESaIcEEES6_E5EntryES9_SaIS8_EET0_T_SC_SB_RT1_
FNDA:27,_ZSt14__relocate_a_1IPN7HashMapIibE5EntryES3_SaIS2_EET0_T_S6_S5_RT1_
FNDA:3,_ZSt14__relocate_a_1IPN7HashMapIiiE5EntryES3_SaIS2_EET0_T_S6_S5_RT1_
FNDA:36,_ZSt14__relocate_a_1IPNSt7__cxx1112basic_stringIcSt11char_traitsIcESaIcEEES6_SaIS5_EET0_T_S9_S8_RT1_
FNDA:60,_ZSt12__relocate_aIPN13CuckooHashMapINSt7__cxx1112basic_stringIcSt11char_traitsIcESaIcEEEiE5EntryES9_SaIS8_EET0_T_SC_SB_RT1_
FNDA:48,_ZSt12__relocate_aIPN7HashMapINSt7__cxx1112basic_stringIcSt11char_traitsIcESaIcEEES6_E5EntryES9_SaIS8_EET0_T_SC_SB_RT1_
FNDA:27,_ZSt12__relocate_aIPN7HashMapIibE5EntryES3_SaIS2_EET0_T_S6_S5_RT1_
FNDA:3,_ZSt12__relocate_aIPN7HashMapIiiE5EntryES3_SaIS2_EET0_T_S6_S5_RT1_
FNDA:36,_ZSt12__relocate_aIPNSt7__cxx1112basic_stringIcSt11char_traitsIcESaIcEEES6_SaIS5_EET0_T_S9_S8_RT1_
FNDA:60,_ZNSt27__uninitialized_default_n_1ILb0EE18__uninit_default_nIPN13CuckooHashMapINSt7__cxx1112basic_stringIcSt11char_traitsIcESaIcEEEiE5EntryEmEET_SC_T0_
FNDA:48,_ZNSt27__uninitialized_default_n_1ILb0EE18__uninit_default_nIPN7HashMapINSt7__cxx1112basic_stringIcSt11char_traitsIcESaIcEEES8_E5EntryEmEET_SC_T0_
FNDA:27,_ZNSt27__uninitialized_default_n_1ILb0EE18__uninit_default_nIPN7HashMapIibE5EntryEmEET_S6_T0_
FNDA:3,_ZNSt27__uninitialized_default_n_1ILb0EE18__uninit_default_nIPN7HashMapIiiE5EntryEmEET_S6_T0_
FNDA:60,_ZSt25__uninitialized_default_nIPN13CuckooHashMapINSt7__cxx1112basic_stringIcSt11char_traitsIcESaIcEEEiE5EntryEmET_SA_T0_
FNDA:48,_ZSt25__uninitialized_default_nIPN7HashMapINSt7__cxx1112basic_stringIcSt11char_traitsIcESaIcEEES6_E5EntryEmET_SA_T0_
FNDA:27,_ZSt25__uninitialized_default_nIPN7HashMapIibE5EntryEmET_S4_T0_
FNDA:3,_ZSt25__uninitialized_default_nIPN7HashMapIiiE5EntryEmET_S4_T0_
FNDA:60,_ZSt27__uninitialized_default_n_aIPN13CuckooHashMapINSt7__cxx1112basic_stringIcSt11char_traitsIcESaIcEEEiE5EntryEmS8_ET_SA_T0_RSaIT1_E
FNDA:48,_ZSt27__uninitialized_default_n_aIPN7HashMapINSt7__cxx1112basic_stringIcSt11char_traitsIcESaIcEEES6_E5EntryEmS8_ET_SA_T0_RSaIT1_E
FNDA:27,_ZSt27__uninitialized_default_n_aIPN7HashMapIibE5EntryEmS2_ET_S4_T0_RSaIT1_E
FNDA:3,_ZSt27__uninitialized_default_n_aIPN7HashMapIiiE5EntryEmS2_ET_S4_T0_RSaIT1_E
FNF:27
FNH:23
DA:637,138
DA:639,138
DA:642,14076
DA:643,13938
DA:644,138
DA:646,0
DA:648,0
DA:649,0
DA:696,138
DA:707,138
DA:712,138
DA:777,138
DA:779,138
DA:1069,18
DA:1077,18
DA:1078,18
DA:1079,18
DA:1091,174
DA:1103,174
DA:1104,192
DA:1105,18
DA:1107,174
DA:1141,174
DA:1147,174
DA:1149,174
LF:25
LH:22
end_of_record
TN:
SF:/usr/include/c++/13/bits/stl_vector.h
FN:1013,1019,_ZNSt6vectorIN13CuckooHashMapINSt7__cxx1112basic_stringIcSt11char_traitsIcESaIcEEEiE5EntryESaIS8_EE6resizeEm
FN:1013,1019,_ZNSt6vectorIN7HashMapINSt7__cxx1112basic_stringIcSt11char_traitsIcESaIcEEES6_E5EntryESaIS8_EE6resizeEm
FN:1013,1019,_ZNSt6vectorIN7HashMapIibE5EntryESaIS2_EE6resizeEm
FN:1013,1019,_ZNSt6vectorIN7HashMapIiiE5EntryESaIS2_EE6resizeEm
FN:1126,1130,_ZNSt6vectorIN13CuckooHashMapINSt7__cxx1112basic_stringIcSt11char_traitsIcESaIcEEEiE5EntryESaIS8_EEixEm
FN:1126,1130,_ZNSt6vectorIN7HashMapINSt7__cxx1112basic_stringIcSt11char_traitsIcESaIcEEES6_E5EntryESaIS8_EEixEm
FN:1126,1130,_ZNSt6vectorIN7HashMapIibE5EntryESaIS2_EEixEm
FN:1126,1130,_ZNSt6vectorIN7HashMapIiiE5EntryESaIS2_EEixEm
FN:1145,1149,_ZNKSt6vectorIN13CuckooHashMapINSt7__cxx1112basic_stringIcSt11char_traitsIcESaIcEEEiE5EntryESaIS8_EEixEm
FN:1145,1149,_ZNKSt6vectorIN7HashMapINSt7__cxx1112basic_stringIcSt11char_traitsIcESaIcEEES6_E5EntryESaIS8_EEixEm
FN:1145,1149,_ZNKSt6vectorIN7HashMapIibE5EntryESaIS2_EEixEm
FN:1145,1149,_ZNKSt6vectorIN7HashMapIiiE5EntryESaIS2_EEixEm
FN:1281,1293,_ZNSt6vectorINSt7__cxx1112basic_stringIcSt11char_traitsIcESaIcEEESaIS5_EE9push_backERKS5_
FN:137,143,_ZNSt12_Vector_baseIN13CuckooHashMapINSt7__cxx1112basic_stringIcSt11char_traitsIcESaIcEEEiE5EntryESaIS8_EE12_Vector_implC2Ev
FN:137,143,_ZNSt12_Vector_baseIN7HashMapINSt7__cxx1112basic_stringIcSt11char_traitsIcESaIcEEES6_E5EntryESaIS8_EE12_Vector_implC2Ev
FN:137,143,_ZNSt12_Vector_baseIN7HashMapIibE5EntryESaIS2_EE12_Vector_implC2Ev
FN:137,143,_ZNSt12_Vector_baseIN7HashMapIiiE5EntryESaIS2_EE12_Vector_implC2Ev
FN:137,143,_ZNSt12_Vector_baseINSt7__cxx1112basic_stringIcSt11char_traitsIcESaIcEEESaIS5_EE12_Vector_implC2Ev
FN:1896,1903,_ZNKSt6vectorIN13CuckooHashMapINSt7__cxx1112basic_stringIcSt11char_traitsIcESaIcEEEiE5EntryESaIS8_EE12_M_check_lenEmPKc
FN:1896,1903,_ZNKSt6vectorIN7HashMapINSt7__cxx1112basic_stringIcSt11char_traitsIcESaIcEEES6_E5EntryESaIS8_EE12_M_check_lenEmPKc
FN:1896,1903,_ZNKSt6vectorIN7HashMapIibE5EntryESaIS2_EE12_M_check_lenEmPKc
FN:1896,1903,_ZNKSt6vectorIN7HashMapIiiE5EntryESaIS2_EE12_M_check_lenEmPKc
FN:1896,1903,_ZNKSt6vectorINSt7__cxx1112basic_stringIcSt11char_traitsIcESaIcEEESaIS5_EE12_M_check_lenEmPKc
FN:1916,1925,_ZNSt6vectorIN13CuckooHashMapINSt7__cxx1112basic_stringIcSt11char_traitsIcESaIcEEEiE5EntryESaIS8_EE11_S_max_sizeERKS9_
FN:1916,1925,_ZNSt6vectorIN7HashMapINSt7__cxx1112basic_stringIcSt11char_traitsIcESaIcEEES6_E5EntryESaIS8_EE11_S_max_sizeERKS9_
FN:1916,1925,_ZNSt6vectorIN7HashMapIibE5EntryESaIS2_EE11_S_max_sizeERKS3_
FN:1916,1925,_ZNSt6vectorIN7HashMapIiiE5EntryESaIS2_EE11_S_max_sizeERKS3_
FN:1916,1925,_ZNSt6vectorINSt7__cxx1112basic_stringIcSt11char_traitsIcESaIcEEESaIS5_EE11_S_max_sizeERKS6_
FN:1933,1942,_ZNSt6vectorIN13CuckooHashMapINSt7__cxx1112basic_stringIcSt11char_traitsIcESaIcEEEiE5EntryESaIS8_EE15_M_erase_at_endEPS8_
FN:1933,1942,_ZNSt6vectorIN7HashMapINSt7__cxx1112basic_stringIcSt11char_traitsIcESaIcEEES6_E5EntryESaIS8_EE15_M_erase_at_endEPS8_
FN:1933,1942,_ZNSt6vectorIN7HashMapIibE5EntryESaIS2_EE15_M_erase_at_endEPS2_
FN:1933,1942,_ZNSt6vectorIN7HashMapIiiE5EntryESaIS2_EE15_M_erase_at_endEPS2_
FN:301,302,_ZNSt12_Vector_baseIN13CuckooHashMapINSt7__cxx1112basic_stringIcSt11char_traitsIcESaIcEEEiE5EntryESaIS8_EE19_M_get_Tp_allocatorEv
FN:301,302,_ZNSt12_Vector_baseIN7HashMapINSt7__cxx1112basic_stringIcSt11char_traitsIcESaIcEEES6_E5EntryESaIS8_EE19_M_get_Tp_allocatorEv
FN:301,302,_ZNSt12_Vector_baseIN7HashMapIibE5EntryESaIS2_EE19_M_get_Tp_allocatorEv
FN:301,302,_ZNSt12_Vector_baseIN7HashMapIiiE5EntryESaIS2_EE19_M_get_Tp_allocatorEv
FN:301,302,_ZNSt12_Vector_baseINSt7__cxx1112basic_stringIcSt11char_traitsIcESaIcEEESaIS5_EE19_M_get_Tp_allocatorEv
FN:306,307,_ZNKSt12_Vector_baseIN13CuckooHashMapINSt7__cxx1112basic_stringIcSt11char_traitsIcESaIcEEEiE5EntryESaIS8_EE19_M_get_Tp_allocatorEv
FN:306,307,_ZNKSt12_Vector_baseIN7HashMapINSt7__cxx1112basic_stringIcSt11char_traitsIcESaIcEEES6_E5EntryESaIS8_EE19_M_get_Tp_allocatorEv
FN:306,307,_ZNKSt12_Vector_baseIN7HashMapIibE5EntryESaIS2_EE19_M_get_Tp_allocatorEv
FN:306,307,_ZNKSt12_Vector_baseIN7HashMapIiiE5EntryESaIS2_EE19_M_get_Tp_allocatorEv
FN:306,307,_ZNKSt12_Vector_baseINSt7__cxx1112basic_stringIcSt11char_traitsIcESaIcEEESaIS5_EE19_M_get_Tp_allocatorEv
FN:315,315,_ZNSt12_Vector_baseIN13CuckooHashMapINSt7__cxx1112basic_stringIcSt11char_traitsIcESaIcEEEiE5EntryESaIS8_EEC2Ev
FN:315,315,_ZNSt12_Vector_baseIN7HashMapINSt7__cxx1112basic_stringIcSt11char_traitsIcESaIcEEES6_E5EntryESaIS8_EEC2Ev
FN:315,315,_ZNSt12_Vector_baseIN7HashMapIibE5EntryESaIS2_EEC2Ev
FN:315,315,_ZNSt12_Vector_baseIN7HashMapIiiE5EntryESaIS2_EEC2Ev
FN:315,315,_ZNSt12_Vector_baseINSt7__cxx1112basic_stringIcSt11char_traitsIcESaIcEEESaIS5_EEC2Ev
FN:367,371,_ZNSt12_Vector_baseIN13CuckooHashMapINSt7__cxx1112basic_stringIcSt11char_traitsIcESaIcEEEiE5EntryESaIS8_EED2Ev
FN:367,371,_ZNSt12_Vector_baseIN7HashMapINSt7__cxx1112basic_stringIcSt11char_traitsIcESaIcEEES6_E5EntryESaIS8_EED2Ev
FN:367,371,_ZNSt12_Vector_baseIN7HashMapIibE5EntryESaIS2_EED2Ev
FN:367,371,_ZNSt12_Vector_baseIN7HashMapIiiE5EntryESaIS2_EED2Ev
FN:367,371,_ZNSt12_Vector_baseINSt7__cxx1112basic_stringIcSt11char_traitsIcESaIcEEESaIS5_EED2Ev
FN:378,382,_ZNSt12_Vector_baseIN13CuckooHashMapINSt7__cxx1112basic_stringIcSt11char_traitsIcESaIcEEEiE5EntryESaIS8_EE11_M_allocateEm
FN:378,382,_ZNSt12_Vector_baseIN7HashMapINSt7__cxx1112basic_stringIcSt11char_traitsIcESaIcEEES6_E5EntryESaIS8_EE11_M_allocateEm
FN:378,382,_ZNSt12_Vector_baseIN7HashMapIibE5EntryESaIS2_EE11_M_allocateEm
FN:378,382,_ZNSt12_Vector_baseIN7HashMapIiiE5EntryESaIS2_EE11_M_allocateEm
FN:378,382,_ZNSt12_Vector_baseINSt7__cxx1112basic_stringIcSt11char_traitsIcESaIcEEESaIS5_EE11_M_allocateEm
FN:386,391,_ZNSt12_Vector_baseIN13CuckooHashMapINSt7__cxx1112basic_stringIcSt11char_traitsIcESaIcEEEiE5EntryESaIS8_EE13_M_deallocateEPS8_m
FN:386,391,_ZNSt12_Vector_baseIN7HashMapINSt7__cxx1112basic_stringIcSt11char_traitsIcESaIcEEES6_E5EntryESaIS8_EE13_M_deallocateEPS8_m
FN:386,391,_ZNSt12_Vector_baseIN7HashMapIibE5EntryESaIS2_EE13_M_deallocateEPS2_m
FN:386,391,_ZNSt12_Vector_baseIN7HashMapIiiE5EntryESaIS2_EE13_M_deallocateEPS2_m
FN:386,391,_ZNSt12_Vector_baseINSt7__cxx1112basic_stringIcSt11char_traitsIcESaIcEEESaIS5_EE13_M_deallocateEPS5_m
FN:504,514,_ZNSt6vectorIN13CuckooHashMapINSt7__cxx1112basic_stringIcSt11char_traitsIcESaIcEEEiE5EntryESaIS8_EE11_S_relocateEPS8_SB_SB_RS9_
FN:504,514,_ZNSt6vectorIN7HashMapINSt7__cxx1112basic_stringIcSt11char_traitsIcESaIcEEES6_E5EntryESaIS8_EE11_S_relocateEPS8_SB_SB_RS9_
FN:504,514,_ZNSt6vectorIN7HashMapIibE5EntryESaIS2_EE11_S_relocateEPS2_S5_S5_RS3_
FN:504,514,_ZNSt6vectorIN7HashMapIiiE5EntryESaIS2_EE11_S_relocateEPS2_S5_S5_RS3_
FN:504,514,_ZNSt6vectorINSt7__cxx1112basic_stringIcSt11char_traitsIcESaIcEEESaIS5_EE11_S_relocateEPS5_S8_S8_RS6_
FN:531,531,_ZNSt6vectorIN13CuckooHashMapINSt7__cxx1112basic_stringIcSt11char_traitsIcESaIcEEEiE5EntryESaIS8_EEC2Ev
FN:531,531,_ZNSt6vectorIN7HashMapINSt7__cxx1112basic_stringIcSt11char_traitsIcESaIcEEES6_E5EntryESaIS8_EEC2Ev
FN:531,531,_ZNSt6vectorIN7HashMapIibE5EntryESaIS2_EEC2Ev
FN:531,531,_ZNSt6vectorIN7HashMapIiiE5EntryESaIS2_EEC2Ev
FN:531,531,_ZNSt6vectorINSt7__cxx1112basic_stringIcSt11char_traitsIcESaIcEEESaIS5_EEC2Ev
FN:733,738,_ZNSt6vectorIN13CuckooHashMapINSt7__cxx1112basic_stringIcSt11char_traitsIcESaIcEEEiE5EntryESaIS8_EED2Ev
FN:733,738,_ZNSt6vectorIN7HashMapINSt7__cxx1112basic_stringIcSt11char_traitsIcESaIcEEES6_E5EntryESaIS8_EED2Ev
FN:733,738,_ZNSt6vectorIN7HashMapIibE5EntryESaIS2_EED2Ev
FN:733,738,_ZNSt6vectorIN7HashMapIiiE5EntryESaIS2_EED2Ev
FN:733,738,_ZNSt6vectorINSt7__cxx1112basic_stringIcSt11char_traitsIcESaIcEEESaIS5_EED2Ev
FN:873,874,_ZNSt6vectorIN13CuckooHashMapINSt7__cxx1112basic_stringIcSt11char_traitsIcESaIcEEEiE5EntryESaIS8_EE5beginEv
FN:873,874,_ZNSt6vectorIN7HashMapINSt7__cxx1112basic_stringIcSt11char_traitsIcESaIcEEES6_E5EntryESaIS8_EE5beginEv
FN:873,874,_ZNSt6vectorIN7HashMapIibE5EntryESaIS2_EE5beginEv
FN:873,874,_ZNSt6vectorINSt7__cxx1112basic_stringIcSt11char_traitsIcESaIcEEESaIS5_EE5beginEv
FN:893,894,_ZNSt6vectorIN13CuckooHashMapINSt7__cxx1112basic_stringIcSt11char_traitsIcESaIcEEEiE5EntryESaIS8_EE3endEv
FN:893,894,_ZNSt6vectorIN7HashMapINSt7__cxx1112basic_stringIcSt11char_traitsIcESaIcEEES6_E5EntryESaIS8_EE3endEv
FN:893,894,_ZNSt6vectorIN7HashMapIibE5EntryESaIS2_EE3endEv
FN:893,894,_ZNSt6vectorINSt7__cxx1112basic_stringIcSt11char_traitsIcESaIcEEESaIS5_EE3endEv
FN:913,914,_ZNSt6vectorINSt7__cxx1112basic_stringIcSt11char_traitsIcESaIcEEESaIS5_EE6rbeginEv
FN:933,934,_ZNSt6vectorINSt7__cxx1112basic_stringIcSt11char_traitsIcESaIcEEESaIS5_EE4rendEv
FN:99,101,_ZNSt12_Vector_baseIN13CuckooHashMapINSt7__cxx1112basic_stringIcSt11char_traitsIcESaIcEEEiE5EntryESaIS8_EE17_Vector_impl_dataC2Ev
FN:99,101,_ZNSt12_Vector_baseIN7HashMapINSt7__cxx1112basic_stringIcSt11char_traitsIcESaIcEEES6_E5EntryESaIS8_EE17_Vector_impl_dataC2Ev
FN:99,101,_ZNSt12_Vector_baseIN7HashMapIibE5EntryESaIS2_EE17_Vector_impl_dataC2Ev
FN:99,101,_ZNSt12_Vector_baseIN7HashMapIiiE5EntryESaIS2_EE17_Vector_impl_dataC2Ev
FN:99,101,_ZNSt12_Vector_baseINSt7__cxx1112basic_stringIcSt11char_traitsIcESaIcEEESaIS5_EE17_Vector_impl_dataC2Ev
FN:992,993,_ZNKSt6vectorIN13CuckooHashMapINSt7__cxx1112basic_stringIcSt11char_traitsIcESaIcEEEiE5EntryESaIS8_EE4sizeEv
FN:992,993,_ZNKSt6vectorIN7HashMapINSt7__cxx1112basic_stringIcSt11char_traitsIcESaIcEEES6_E5EntryESaIS8_EE4sizeEv
FN:992,993,_ZNKSt6vectorIN7HashMapIibE5EntryESaIS2_EE4sizeEv
FN:992,993,_ZNKSt6vectorIN7HashMapIiiE5EntryESaIS2_EE4sizeEv
FN:992,993,_ZNKSt6vectorINSt7__cxx1112basic_stringIcSt11char_traitsIcESaIcEEESaIS5_EE4sizeEv
FN:998,999,_ZNKSt6vectorIN13CuckooHashMapINSt7__cxx1112basic_stringIcSt11char_traitsIcESaIcEEEiE5EntryESaIS8_EE8max_sizeEv
FN:998,999,_ZNKSt6vectorIN7HashMapINSt7__cxx1112basic_stringIcSt11char_traitsIcESaIcEEES6_E5EntryESaIS8_EE8max_sizeEv
FN:998,999,_ZNKSt6vectorIN7HashMapIibE5EntryESaIS2_EE8max_sizeEv
FN:998,999,_ZNKSt6vectorIN7HashMapIiiE5EntryESaIS2_EE8max_sizeEv
FN:998,999,_ZNKSt6vectorINSt7__cxx1112basic_stringIcSt11char_traitsIcESaIcEEESaIS5_EE8max_sizeEv
FNDA:60,_ZNSt6vectorIN13CuckooHashMapINSt7__cxx1112basic_stringIcSt11char_traitsIcESaIcEEEiE5EntryESaIS8_EE6resizeEm
FNDA:48,_ZNSt6vectorIN7HashMapINSt7__cxx1112basic_stringIcSt11char_traitsIcESaIcEEES6_E5EntryESaIS8_EE6resizeEm
FNDA:27,_ZNSt6vectorIN7HashMapIibE5EntryESaIS2_EE6resizeEm
FNDA:3,_ZNSt6vectorIN7HashMapIiiE5EntryESaIS2_EE6resizeEm
FNDA:165,_ZNSt6vectorIN13CuckooHashMapINSt7__cxx1112basic_stringIcSt11char_traitsIcESaIcEEEiE5EntryESaIS8_EEixEm
FNDA:222,_ZNSt6vectorIN7HashMapINSt7__cxx1112basic_stringIcSt11char_traitsIcESaIcEEES6_E5EntryESaIS8_EEixEm
FNDA:48,_ZNSt6vectorIN7HashMapIibE5EntryESaIS2_EEixEm
FNDA:9,_ZNSt6vectorIN7HashMapIiiE5EntryESaIS2_EEixEm
FNDA:906,_ZNKSt6vectorIN13CuckooHashMapINSt7__cxx1112basic_stringIcSt11char_traitsIcESaIcEEEiE5EntryESaIS8_EEixEm
FNDA:1686,_ZNKSt6vectorIN7HashMapINSt7__cxx1112basic_stringIcSt11char_traitsIcESaIcEEES6_E5EntryESaIS8_EEixEm
FNDA:93,_ZNKSt6vectorIN7HashMapIibE5EntryESaIS2_EEixEm
FNDA:36,_ZNKSt6vectorIN7HashMapIiiE5EntryESaIS2_EEixEm
FNDA:18,_ZNSt6vectorINSt7__cxx1112basic_stringIcSt11char_traitsIcESaIcEEESaIS5_EE9push_backERKS5_
FNDA:60,_ZNSt12_Vector_baseIN13CuckooHashMapINSt7__cxx1112basic_stringIcSt11char_traitsIcESaIcEEEiE5EntryESaIS8_EE12_Vector_implC2Ev
FNDA:48,_ZNSt12_Vector_baseIN7HashMapINSt7__cxx1112basic_stringIcSt11char_traitsIcESaIcEEES6_E5EntryESaIS8_EE12_Vector_implC2Ev
FNDA:27,_ZNSt12_Vector_baseIN7HashMapIibE5EntryESaIS2_EE12_Vector_implC2Ev
FNDA:3,_ZNSt12_Vector_baseIN7HashMapIiiE5EntryESaIS2_EE12_Vector_implC2Ev
FNDA:6,_ZNSt12_Vector_baseINSt7__cxx1112basic_stringIcSt11char_traitsIcESaIcEEESaIS5_EE12_Vector_implC2Ev
FNDA:60,_ZNKSt6vectorIN13CuckooHashMapINSt7__cxx1112basic_stringIcSt11char_traitsIcESaIcEEEiE5EntryESaIS8_EE12_M_check_lenEmPKc
FNDA:48,_ZNKSt6vectorIN7HashMapINSt7__cxx1112basic_stringIcSt11char_traitsIcESaIcEEES6_E5EntryESaIS8_EE12_M_check_lenEmPKc
FNDA:27,_ZNKSt6vectorIN7HashMapIibE5EntryESaIS2_EE12_M_check_lenEmPKc
FNDA:3,_ZNKSt6vectorIN7HashMapIiiE5EntryESaIS2_EE12_M_check_lenEmPKc
FNDA:18,_ZNKSt6vectorINSt7__cxx1112basic_stringIcSt11char_traitsIcESaIcEEESaIS5_EE12_M_check_lenEmPKc
FNDA:240,_ZNSt6vectorIN13CuckooHashMapINSt7__cxx1112basic_stringIcSt11char_traitsIcESaIcEEEiE5EntryESaIS8_EE11_S_max_sizeERKS9_
FNDA:192,_ZNSt6vectorIN7HashMapINSt7__cxx1112basic_stringIcSt11char_traitsIcESaIcEEES6_E5EntryESaIS8_EE11_S_max_sizeERKS9_
FNDA:108,_ZNSt6vectorIN7HashMapIibE5EntryESaIS2_EE11_S_max_sizeERKS3_
FNDA:12,_ZNSt6vectorIN7HashMapIiiE5EntryESaIS2_EE11_S_max_sizeERKS3_
FNDA:36,_ZNSt6vectorINSt7__cxx1112basic_stringIcSt11char_traitsIcESaIcEEESaIS5_EE11_S_max_sizeERKS6_
FNDA:0,_ZNSt6vectorIN13CuckooHashMapINSt7__cxx1112basic_stringIcSt11char_traitsIcESaIcEEEiE5EntryESaIS8_EE15_M_erase_at_endEPS8_
FNDA:0,_ZNSt6vectorIN7HashMapINSt7__cxx1112basic_stringIcSt11char_traitsIcESaIcEEES6_E5EntryESaIS8_EE15_M_erase_at_endEPS8_
FNDA:0,_ZNSt6vectorIN7HashMapIibE5EntryESaIS2_EE15_M_erase_at_endEPS2_
FNDA:0,_ZNSt6vectorIN7HashMapIiiE5EntryESaIS2_EE15_M_erase_at_endEPS2_
FNDA:180,_ZNSt12_Vector_baseIN13CuckooHashMapINSt7__cxx1112basic_stringIcSt11char_traitsIcESaIcEEEiE5EntryESaIS8_EE19_M_get_Tp_allocatorEv
FNDA:144,_ZNSt12_Vector_baseIN7HashMapINSt7__cxx1112basic_stringIcSt11char_traitsIcESaIcEEES6_E5EntryESaIS8_EE19_M_get_Tp_allocatorEv
FNDA:81,_ZNSt12_Vector_baseIN7HashMapIibE5EntryESaIS2_EE19_M_get_Tp_allocatorEv
FNDA:9,_ZNSt12_Vector_baseIN7HashMapIiiE5EntryESaIS2_EE19_M_get_Tp_allocatorEv
FNDA:78,_ZNSt12_Vector_baseINSt7__cxx1112basic_stringIcSt11char_traitsIcESaIcEEESaIS5_EE19_M_get_Tp_allocatorEv
FNDA:240,_ZNKSt12_Vector_baseIN13CuckooHashMapINSt7__cxx1112basic_stringIcSt11char_traitsIcESaIcEEEiE5EntryESaIS8_EE19_M_get_Tp_allocatorEv
FNDA:192,_ZNKSt12_Vector_baseIN7HashMapINSt7__cxx1112basic_stringIcSt11char_traitsIcESaIcEEES6_E5EntryESaIS8_EE19_M_get_Tp_allocatorEv
FNDA:108,_ZNKSt12_Vector_baseIN7HashMapIibE5EntryESaIS2_EE19_M_get_Tp_allocatorEv
FNDA:12,_ZNKSt12_Vector_baseIN7HashMapIiiE5EntryESaIS2_EE19_M_get_Tp_allocatorEv
FNDA:36,_ZNKSt12_Vector_baseINSt7__cxx1112basic_stringIcSt11char_traitsIcESaIcEEESaIS5_EE19_M_get_Tp_allocatorEv
FNDA:60,_ZNSt12_Vector_baseIN13CuckooHashMapINSt7__cxx1112basic_stringIcSt11char_traitsIcESaIcEEEiE5EntryESaIS8_EEC2Ev
FNDA:48,_ZNSt12_Vector_baseIN7HashMapINSt7__cxx1112basic_stringIcSt11char_traitsIcESaIcEEES6_E5EntryESaIS8_EEC2Ev
FNDA:27,_ZNSt12_Vector_baseIN7HashMapIibE5EntryESaIS2_EEC2Ev
FNDA:3,_ZNSt12_Vector_baseIN7HashMapIiiE5EntryESaIS2_EEC2Ev
FNDA:6,_ZNSt12_Vector_baseINSt7__cxx1112basic_stringIcSt11char_traitsIcESaIcEEESaIS5_EEC2Ev
FNDA:60,_ZNSt12_Vector_baseIN13CuckooHashMapINSt7__cxx1112basic_stringIcSt11char_traitsIcESaIcEEEiE5EntryESaIS8_EED2Ev
FNDA:48,_ZNSt12_Vector_baseIN7HashMapINSt7__cxx1112basic_stringIcSt11char_traitsIcESaIcEEES6_E5EntryESaIS8_EED2Ev
FNDA:27,_ZNSt12_Vector_baseIN7HashMapIibE5EntryESaIS2_EED2Ev
FNDA:3,_ZNSt12_Vector_baseIN7HashMapIiiE5EntryESaIS2_EED2Ev
FNDA:42,_ZNSt12_Vector_baseINSt7__cxx1112basic_stringIcSt11char_traitsIcESaIcEEESaIS5_EED2Ev
FNDA:60,_ZNSt12_Vector_baseIN13CuckooHashMapINSt7__cxx1112basic_stringIcSt11char_traitsIcESaIcEEEiE5EntryESaIS8_EE11_M_allocateEm
FNDA:48,_ZNSt12_Vector_baseIN7HashMapINSt7__cxx1112basic_stringIcSt11char_traitsIcESaIcEEES6_E5EntryESaIS8_EE11_M_allocateEm
FNDA:27,_ZNSt12_Vector_baseIN7HashMapIibE5EntryESaIS2_EE11_M_allocateEm
FNDA:3,_ZNSt12_Vector_baseIN7HashMapIiiE5EntryESaIS2_EE11_M_allocateEm
FNDA:18,_ZNSt12_Vector_baseINSt7__cxx1112basic_stringIcSt11char_traitsIcESaIcEEESaIS5_EE11_M_allocateEm
FNDA:120,_ZNSt12_Vector_baseIN13CuckooHashMapINSt7__cxx1112basic_stringIcSt11char_traitsIcESaIcEEEiE5EntryESaIS8_EE13_M_deallocateEPS8_m
FNDA:96,_ZNSt12_Vector_baseIN7HashMapINSt7__cxx1112basic_stringIcSt11char_traitsIcESaIcEEES6_E5EntryESaIS8_EE13_M_deallocateEPS8_m
FNDA:54,_ZNSt12_Vector_baseIN7HashMapIibE5EntryESaIS2_EE13_M_deallocateEPS2_m
FNDA:6,_ZNSt12_Vector_baseIN7HashMapIiiE5EntryESaIS2_EE13_M_deallocateEPS2_m
FNDA:60,_ZNSt12_Vector_baseINSt7__cxx1112basic_stringIcSt11char_traitsIcESaIcEEESaIS5_EE13_M_deallocateEPS5_m
FNDA:60,_ZNSt6vectorIN13CuckooHashMapINSt7__cxx1112basic_stringIcSt11char_traitsIcESaIcEEEiE5EntryESaIS8_EE11_S_relocateEPS8_SB_SB_RS9_
FNDA:48,_ZNSt6vectorIN7HashMapINSt7__cxx1112basic_stringIcSt11char_traitsIcESaIcEEES6_E5EntryESaIS8_EE11_S_relocateEPS8_SB_SB_RS9_
FNDA:27,_ZNSt6vectorIN7HashMapIibE5EntryESaIS2_EE11_S_relocateEPS2_S5_S5_RS3_
FNDA:3,_ZNSt6vectorIN7HashMapIiiE5EntryESaIS2_EE11_S_relocateEPS2_S5_S5_RS3_
FNDA:36,_ZNSt6vectorINSt7__cxx1112basic_stringIcSt11char_traitsIcESaIcEEESaIS5_EE11_S_relocateEPS5_S8_S8_RS6_
FNDA:60,_ZNSt6vectorIN13CuckooHashMapINSt7__cxx1112basic_stringIcSt11char_traitsIcESaIcEEEiE5EntryESaIS8_EEC2Ev
FNDA:48,_ZNSt6vectorIN7HashMapINSt7__cxx1112basic_stringIcSt11char_traitsIcESaIcEEES6_E5EntryESaIS8_EEC2Ev
FNDA:27,_ZNSt6vectorIN7HashMapIibE5EntryESaIS2_EEC2Ev
FNDA:3,_ZNSt6vectorIN7HashMapIiiE5EntryESaIS2_EEC2Ev
FNDA:6,_ZNSt6vectorINSt7__cxx1112basic_stringIcSt11char_traitsIcESaIcEEESaIS5_EEC2Ev
FNDA:60,_ZNSt6vectorIN13CuckooHashMapINSt7__cxx1112basic_stringIcSt11char_traitsIcESaIcEEEiE5EntryESaIS8_EED2Ev
FNDA:48,_ZNSt6vectorIN7HashMapINSt7__cxx1112basic_stringIcSt11char_traitsIcESaIcEEES6_E5EntryESaIS8_EED2Ev
FNDA:27,_ZNSt6vectorIN7HashMapIibE5EntryESaIS2_EED2Ev
FNDA:3,_ZNSt6vectorIN7HashMapIiiE5EntryESaIS2_EED2Ev
FNDA:42,_ZNSt6vectorINSt7__cxx1112basic_stringIcSt11char_traitsIcESaIcEEESaIS5_EED2Ev
FNDA:6,_ZNSt6vectorIN13CuckooHashMapINSt7__cxx1112basic_stringIcSt11char_traitsIcESaIcEEEiE5EntryESaIS8_EE5beginEv
FNDA:6,_ZNSt6vectorIN7HashMapINSt7__cxx1112basic_stringIcSt11char_traitsIcESaIcEEES6_E5EntryESaIS8_EE5beginEv
FNDA:3,_ZNSt6vectorIN7HashMapIibE5EntryESaIS2_EE5beginEv
FNDA:33,_ZNSt6vectorINSt7__cxx1112basic_stringIcSt11char_traitsIcESaIcEEESaIS5_EE5beginEv
FNDA:6,_ZNSt6vectorIN13CuckooHashMapINSt7__cxx1112basic_stringIcSt11char_traitsIcESaIcEEEiE5EntryESaIS8_EE3endEv
FNDA:6,_ZNSt6vectorIN7HashMapINSt7__cxx1112basic_stringIcSt11char_traitsIcESaIcEEES6_E5EntryESaIS8_EE3endEv
FNDA:3,_ZNSt6vectorIN7HashMapIibE5EntryESaIS2_EE3endEv
FNDA:24,_ZNSt6vectorINSt7__cxx1112basic_stringIcSt11char_traitsIcESaIcEEESaIS5_EE3endEv
FNDA:3,_ZNSt6vectorINSt7__cxx1112basic_stringIcSt11char_traitsIcESaIcEEESaIS5_EE6rbeginEv
FNDA:12,_ZNSt6vectorINSt7__cxx1112basic_stringIcSt11char_traitsIcESaIcEEESaIS5_EE4rendEv
FNDA:60,_ZNSt12_Vector_baseIN13CuckooHashMapINSt7__cxx1112basic_stringIcSt11char_traitsIcESaIcEEEiE5EntryESaIS8_EE17_Vector_impl_dataC2Ev
FNDA:48,_ZNSt12_Vector_baseIN7HashMapINSt7__cxx1112basic_stringIcSt11char_traitsIcESaIcEEES6_E5EntryESaIS8_EE17_Vector_impl_dataC2Ev
FNDA:27,_ZNSt12_Vector_baseIN7HashMapIibE5EntryESaIS2_EE17_Vector_impl_dataC2Ev
FNDA:3,_ZNSt12_Vector_baseIN7HashMapIiiE5EntryESaIS2_EE17_Vector_impl_dataC2Ev
FNDA:6,_ZNSt12_Vector_baseINSt7__cxx1112basic_stringIcSt11char_traitsIcESaIcEEESaIS5_EE17_Vector_impl_dataC2Ev
FNDA:420,_ZNKSt6vectorIN13CuckooHashMapINSt7__cxx1112basic_stringIcSt11char_traitsIcESaIcEEEiE5EntryESaIS8_EE4sizeEv
FNDA:336,_ZNKSt6vectorIN7HashMapINSt7__cxx1112basic_stringIcSt11char_traitsIcESaIcEEES6_E5EntryESaIS8_EE4sizeEv
FNDA:189,_ZNKSt6vectorIN7HashMapIibE5EntryESaIS2_EE4sizeEv
FNDA:21,_ZNKSt6vectorIN7HashMapIiiE5EntryESaIS2_EE4sizeEv
FNDA:72,_ZNKSt6vectorINSt7__cxx1112basic_stringIcSt11char_traitsIcESaIcEEESaIS5_EE4sizeEv
FNDA:240,_ZNKSt6vectorIN13CuckooHashMapINSt7__cxx1112basic_stringIcSt11char_traitsIcESaIcEEEiE5EntryESaIS8_EE8max_sizeEv
FNDA:192,_ZNKSt6vectorIN7HashMapINSt7__cxx1112basic_stringIcSt11char_traitsIcESaIcEEES6_E5EntryESaIS8_EE8max_sizeEv
FNDA:108,_ZNKSt6vectorIN7HashMapIibE5EntryESaIS2_EE8max_sizeEv
FNDA:12,_ZNKSt6vectorIN7HashMapIiiE5EntryESaIS2_EE8max_sizeEv
FNDA:36,_ZNKSt6vectorINSt7__cxx1112basic_stringIcSt11char_traitsIcESaIcEEESaIS5_EE8max_sizeEv
FNF:102
FNH:98
DA:99,144
DA:100,144
DA:101,144
DA:137,144
DA:142,144
DA:143,144
DA:301,492
DA:302,492
DA:306,588
DA:307,588
DA:315,144
DA:367,180
DA:369,180
DA:370,180
DA:371,180
DA:378,156
DA:381,312
DA:386,336
DA:389,336
DA:390,183
DA:391,336
DA:504,174
DA:509,174
DA:531,144
DA:733,180
DA:735,180
DA:736,180
DA:738,180
DA:873,48
DA:874,48
DA:893,39
DA:894,39
DA:913,3
DA:914,3
DA:933,12
DA:934,12
DA:992,1038
DA:993,1038
DA:998,588
DA:999,588
DA:1013,138
DA:1015,138
DA:1016,138
DA:1017,0
DA:1018,0
DA:1019,138
DA:1126,444
DA:1129,444
DA:1145,2721
DA:1148,2721
DA:1281,18
DA:1283,18
DA:1286,0
DA:1288,0
DA:1292,18
DA:1293,18
DA:1896,156
DA:1898,156
DA:1899,0
DA:1901,156
DA:1902,156
DA:1916,588
DA:1921,588
DA:1923,588
DA:1924,588
DA:1933,0
DA:1935,0
DA:1937,0
DA:1938,0
DA:1939,0
DA:1942,0
LF:71
LH:60
end_of_record
TN:
SF:/usr/include/c++/13/bits/unique_ptr.h
FN:174,174,_ZNSt15__uniq_ptr_implINSt7__cxx1112basic_stringIcSt11char_traitsIcESaIcEEESt14default_deleteIS5_EEC2Ev
FN:197,197,_ZNSt15__uniq_ptr_implINSt7__cxx1112basic_stringIcSt11char_traitsIcESaIcEEESt14default_deleteIS5_EE6_M_ptrEv
FN:197,197,_ZNSt15__uniq_ptr_implINSt7__cxx1118basic_stringstreamIcSt11char_traitsIcESaIcEEESt14default_deleteIS5_EE6_M_ptrEv
FN:199,199,_ZNKSt15__uniq_ptr_implINSt7__cxx1112basic_stringIcSt11char_traitsIcESaIcEEESt14default_deleteIS5_EE6_M_ptrEv
FN:201,201,_ZNSt15__uniq_ptr_implINSt7__cxx1112basic_stringIcSt11char_traitsIcESaIcEEESt14default_deleteIS5_EE10_M_deleterEv
FN:201,201,_ZNSt15__uniq_ptr_implINSt7__cxx1118basic_stringstreamIcSt11char_traitsIcESaIcEEESt14default_deleteIS5_EE10_M_deleterEv
FN:304,306,_ZNSt10unique_ptrINSt7__cxx1112basic_stringIcSt11char_traitsIcESaIcEEESt14default_deleteIS5_EEC2IS7_vEEv
FN:398,406,_ZNSt10unique_ptrINSt7__cxx1112basic_stringIcSt11char_traitsIcESaIcEEESt14default_deleteIS5_EED2Ev
FN:398,406,_ZNSt10unique_ptrINSt7__cxx1118basic_stringstreamIcSt11char_traitsIcESaIcEEESt14default_deleteIS5_EED2Ev
FN:460,464,_ZNKSt10unique_ptrINSt7__cxx1112basic_stringIcSt11char_traitsIcESaIcEEESt14default_deleteIS5_EEptEv
FN:469,470,_ZNKSt10unique_ptrINSt7__cxx1112basic_stringIcSt11char_traitsIcESaIcEEESt14default_deleteIS5_EE3getEv
FN:475,476,_ZNSt10unique_ptrINSt7__cxx1112basic_stringIcSt11char_traitsIcESaIcEEESt14default_deleteIS5_EE11get_deleterEv
FN:475,476,_ZNSt10unique_ptrINSt7__cxx1118basic_stringstreamIcSt11char_traitsIcESaIcEEESt14default_deleteIS5_EE11get_deleterEv
FN:486,487,_ZNKSt10unique_ptrINSt7__cxx1112basic_stringIcSt11char_traitsIcESaIcEEESt14default_deleteIS5_EEcvbEv
FN:861,862,_ZStneINSt7__cxx1112basic_stringIcSt11char_traitsIcESaIcEEESt14default_deleteIS5_EEbRKSt10unique_ptrIT_T0_EDn
FN:93,100,_ZNKSt14default_deleteINSt7__cxx1112basic_stringIcSt11char_traitsIcESaIcEEEEclEPS5_
FN:93,100,_ZNKSt14default_deleteINSt7__cxx1118basic_stringstreamIcSt11char_traitsIcESaIcEEEEclEPS5_
FNDA:828,_ZNSt15__uniq_ptr_implINSt7__cxx1112basic_stringIcSt11char_traitsIcESaIcEEESt14default_deleteIS5_EEC2Ev
FNDA:1479,_ZNSt15__uniq_ptr_implINSt7__cxx1112basic_stringIcSt11char_traitsIcESaIcEEESt14default_deleteIS5_EE6_M_ptrEv
FNDA:0,_ZNSt15__uniq_ptr_implINSt7__cxx1118basic_stringstreamIcSt11char_traitsIcESaIcEEESt14default_deleteIS5_EE6_M_ptrEv
FNDA:0,_ZNKSt15__uniq_ptr_implINSt7__cxx1112basic_stringIcSt11char_traitsIcESaIcEEESt14default_deleteIS5_EE6_M_ptrEv
FNDA:0,_ZNSt15__uniq_ptr_implINSt7__cxx1112basic_stringIcSt11char_traitsIcESaIcEEESt14default_deleteIS5_EE10_M_deleterEv
FNDA:0,_ZNSt15__uniq_ptr_implINSt7__cxx1118basic_stringstreamIcSt11char_traitsIcESaIcEEESt14default_deleteIS5_EE10_M_deleterEv
FNDA:828,_ZNSt10unique_ptrINSt7__cxx1112basic_stringIcSt11char_traitsIcESaIcEEESt14default_deleteIS5_EEC2IS7_vEEv
FNDA:1479,_ZNSt10unique_ptrINSt7__cxx1112basic_stringIcSt11char_traitsIcESaIcEEESt14default_deleteIS5_EED2Ev
FNDA:0,_ZNSt10unique_ptrINSt7__cxx1118basic_stringstreamIcSt11char_traitsIcESaIcEEESt14default_deleteIS5_EED2Ev
FNDA:0,_ZNKSt10unique_ptrINSt7__cxx1112basic_stringIcSt11char_traitsIcESaIcEEESt14default_deleteIS5_EEptEv
FNDA:0,_ZNKSt10unique_ptrINSt7__cxx1112basic_stringIcSt11char_traitsIcESaIcEEESt14default_deleteIS5_EE3getEv
FNDA:0,_ZNSt10unique_ptrINSt7__cxx1112basic_stringIcSt11char_traitsIcESaIcEEESt14default_deleteIS5_EE11get_deleterEv
FNDA:0,_ZNSt10unique_ptrINSt7__cxx1118basic_stringstreamIcSt11char_traitsIcESaIcEEESt14default_deleteIS5_EE11get_deleterEv
FNDA:0,_ZNKSt10unique_ptrINSt7__cxx1112basic_stringIcSt11char_traitsIcESaIcEEESt14default_deleteIS5_EEcvbEv
FNDA:0,_ZStneINSt7__cxx1112basic_stringIcSt11char_traitsIcESaIcEEESt14default_deleteIS5_EEbRKSt10unique_ptrIT_T0_EDn
FNDA:0,_ZNKSt14default_deleteINSt7__cxx1112basic_stringIcSt11char_traitsIcESaIcEEEEclEPS5_
FNDA:0,_ZNKSt14default_deleteINSt7__cxx1118basic_stringstreamIcSt11char_traitsIcESaIcEEEEclEPS5_
FNF:17
FNH:4
DA:93,0
DA:99,0
DA:100,0
DA:174,828
DA:197,1479
DA:199,0
DA:201,0
DA:304,828
DA:305,828
DA:306,828
DA:398,1479
DA:402,1479
DA:403,1479
DA:404,0
DA:405,1479
DA:406,1479
DA:460,0
DA:463,0
DA:469,0
DA:470,0
DA:475,0
DA:476,0
DA:486,0
DA:487,0
DA:861,0
DA:862,0
LF:26
LH:10
end_of_record
TN:
SF:/usr/include/c++/13/bits/vector.tcc
FN:445,524,_ZNSt6vectorINSt7__cxx1112basic_stringIcSt11char_traitsIcESaIcEEESaIS5_EE17_M_realloc_insertIJRKS5_EEEvN9__gnu_cxx17__normal_iteratorIPS5_S7_EEDpOT_
FN:634,710,_ZNSt6vectorIN13CuckooHashMapINSt7__cxx1112basic_stringIcSt11char_traitsIcESaIcEEEiE5EntryESaIS8_EE17_M_default_appendEm
FN:634,710,_ZNSt6vectorIN7HashMapINSt7__cxx1112basic_stringIcSt11char_traitsIcESaIcEEES6_E5EntryESaIS8_EE17_M_default_appendEm
FN:634,710,_ZNSt6vectorIN7HashMapIibE5EntryESaIS2_EE17_M_default_appendEm
FN:634,710,_ZNSt6vectorIN7HashMapIiiE5EntryESaIS2_EE17_M_default_appendEm
FNDA:18,_ZNSt6vectorINSt7__cxx1112basic_stringIcSt11char_traitsIcESaIcEEESaIS5_EE17_M_realloc_insertIJRKS5_EEEvN9__gnu_cxx17__normal_iteratorIPS5_S7_EEDpOT_
FNDA:60,_ZNSt6vectorIN13CuckooHashMapINSt7__cxx1112basic_stringIcSt11char_traitsIcESaIcEEEiE5EntryESaIS8_EE17_M_default_appendEm
FNDA:48,_ZNSt6vectorIN7HashMapINSt7__cxx1112basic_stringIcSt11char_traitsIcESaIcEEES6_E5EntryESaIS8_EE17_M_default_appendEm
FNDA:27,_ZNSt6vectorIN7HashMapIibE5EntryESaIS2_EE17_M_default_appendEm
FNDA:3,_ZNSt6vectorIN7HashMapIiiE5EntryESaIS2_EE17_M_default_appendEm
FNF:5
FNH:5
DA:445,18
DA:455,18
DA:456,18
DA:457,18
DA:458,18
DA:459,18
DA:460,18
DA:468,18
DA:469,18
DA:475,18
DA:480,18
DA:481,18
DA:483,18
DA:485,18
DA:486,18
DA:504,0
DA:506,0
DA:507,0
DA:508,0
DA:510,0
DA:511,0
DA:512,0
DA:519,18
DA:520,18
DA:521,18
DA:522,18
DA:523,18
DA:524,18
DA:634,138
DA:637,138
DA:639,138
DA:640,138
DA:641,138
DA:643,138
DA:644,0
DA:646,138
DA:649,0
DA:650,0
DA:651,0
DA:658,138
DA:659,138
DA:662,138
DA:663,138
DA:668,138
DA:669,138
DA:671,0
DA:673,0
DA:674,0
DA:676,138
DA:677,138
DA:703,138
DA:704,138
DA:705,138
DA:706,138
DA:707,138
DA:710,138
LF:56
LH:42
end_of_record
TN:
SF:/usr/include/c++/13/initializer_list
FN:69,69,_ZNKSt16initializer_listIiE4sizeEv
FN:73,73,_ZNKSt16initializer_listIiE5beginEv
FN:77,77,_ZNKSt16initializer_listIiE3endEv
FNDA:3,_ZNKSt16initializer_listIiE4sizeEv
FNDA:6,_ZNKSt16initializer_listIiE5beginEv
FNDA:3,_ZNKSt16initializer_listIiE3endEv
FNF:3
FNH:3
DA:69,3
DA:73,6
DA:77,3
LF:3
LH:3
end_of_record
TN:
SF:/usr/include/c++/13/new
FN:174,175,_ZnwmPv
FN:180,180,_ZdlPvS_
FNDA:13974,_ZnwmPv
FNDA:0,_ZdlPvS_
FNF:2
FNH:1
DA:174,13974
DA:175,13974
DA:180,0
LF:3
LH:2
end_of_record
TN:
SF:/usr/include/c++/13/tuple
FN:125,125,_ZNSt10_Head_baseILm1ESt14default_deleteINSt7__cxx1112basic_stringIcSt11char_traitsIcESaIcEEEELb1EE7_M_headERS8_
FN:125,125,_ZNSt10_Head_baseILm1ESt14default_deleteINSt7__cxx1118basic_stringstreamIcSt11char_traitsIcESaIcEEEELb1EE7_M_headERS8_
FN:1317,1319,_ZNSt5tupleIJPNSt7__cxx1112basic_stringIcSt11char_traitsIcESaIcEEESt14default_deleteIS5_EEEC2ILb1ELb1EEEv
FN:1787,1788,_ZSt12__get_helperILm0EPNSt7__cxx1112basic_stringIcSt11char_traitsIcESaIcEEEJSt14default_deleteIS5_EEERT0_RSt11_Tuple_implIXT_EJS9_DpT1_EE
FN:1787,1788,_ZSt12__get_helperILm0EPNSt7__cxx1118basic_stringstreamIcSt11char_traitsIcESaIcEEEJSt14default_deleteIS5_EEERT0_RSt11_Tuple_implIXT_EJS9_DpT1_EE
FN:1787,1788,_ZSt12__get_helperILm1ESt14default_deleteINSt7__cxx1112basic_stringIcSt11char_traitsIcESaIcEEEEJEERT0_RSt11_Tuple_implIXT_EJS8_DpT1_EE
FN:1787,1788,_ZSt12__get_helperILm1ESt14default_deleteINSt7__cxx1118basic_stringstreamIcSt11char_traitsIcESaIcEEEEJEERT0_RSt11_Tuple_implIXT_EJS8_DpT1_EE
FN:1792,1793,_ZSt12__get_helperILm0EPNSt7__cxx1112basic_stringIcSt11char_traitsIcESaIcEEEJSt14default_deleteIS5_EEERKT0_RKSt11_Tuple_implIXT_EJS9_DpT1_EE
FN:1803,1804,_ZSt3getILm0EJPNSt7__cxx1112basic_stringIcSt11char_traitsIcESaIcEEESt14default_deleteIS5_EEERNSt13tuple_elementIXT_ESt5tupleIJDpT0_EEE4typeERSD_
FN:1803,1804,_ZSt3getILm0EJPNSt7__cxx1118basic_stringstreamIcSt11char_traitsIcESaIcEEESt14default_deleteIS5_EEERNSt13tuple_elementIXT_ESt5tupleIJDpT0_EEE4typeERSD_
FN:1803,1804,_ZSt3getILm1EJPNSt7__cxx1112basic_stringIcSt11char_traitsIcESaIcEEESt14default_deleteIS5_EEERNSt13tuple_elementIXT_ESt5tupleIJDpT0_EEE4typeERSD_
FN:1803,1804,_ZSt3getILm1EJPNSt7__cxx1118basic_stringstreamIcSt11char_traitsIcESaIcEEESt14default_deleteIS5_EEERNSt13tuple_elementIXT_ESt5tupleIJDpT0_EEE4typeERSD_
FN:1809,1810,_ZSt3getILm0EJPNSt7__cxx1112basic_stringIcSt11char_traitsIcESaIcEEESt14default_deleteIS5_EEERKNSt13tuple_elementIXT_ESt5tupleIJDpT0_EEE4typeERKSD_
FN:190,191,_ZNSt10_Head_baseILm0EPNSt7__cxx1112basic_stringIcSt11char_traitsIcESaIcEEELb0EEC2Ev
FN:234,234,_ZNSt10_Head_baseILm0EPNSt7__cxx1112basic_stringIcSt11char_traitsIcESaIcEEELb0EE7_M_headERS7_
FN:234,234,_ZNSt10_Head_baseILm0EPNSt7__cxx1118basic_stringstreamIcSt11char_traitsIcESaIcEEELb0EE7_M_headERS7_
FN:237,237,_ZNSt10_Head_baseILm0EPNSt7__cxx1112basic_stringIcSt11char_traitsIcESaIcEEELb0EE7_M_headERKS7_
FN:269,269,_ZNSt11_Tuple_implILm0EJPNSt7__cxx1112basic_stringIcSt11char_traitsIcESaIcEEESt14default_deleteIS5_EEE7_M_headERS9_
FN:269,269,_ZNSt11_Tuple_implILm0EJPNSt7__cxx1118basic_stringstreamIcSt11char_traitsIcESaIcEEESt14default_deleteIS5_EEE7_M_headERS9_
FN:272,272,_ZNSt11_Tuple_implILm0EJPNSt7__cxx1112basic_stringIcSt11char_traitsIcESaIcEEESt14default_deleteIS5_EEE7_M_headERKS9_
FN:280,281,_ZNSt11_Tuple_implILm0EJPNSt7__cxx1112basic_stringIcSt11char_traitsIcESaIcEEESt14default_deleteIS5_EEEC2Ev
FN:497,497,_ZNSt11_Tuple_implILm1EJSt14default_deleteINSt7__cxx1112basic_stringIcSt11char_traitsIcESaIcEEEEEE7_M_headERS8_
FN:497,497,_ZNSt11_Tuple_implILm1EJSt14default_deleteINSt7__cxx1118basic_stringstreamIcSt11char_traitsIcESaIcEEEEEE7_M_headERS8_
FN:503,504,_ZNSt11_Tuple_implILm1EJSt14default_deleteINSt7__cxx1112basic_stringIcSt11char_traitsIcESaIcEEEEEEC2Ev
FN:81,82,_ZNSt10_Head_baseILm1ESt14default_deleteINSt7__cxx1112basic_stringIcSt11char_traitsIcESaIcEEEELb1EEC2Ev
FNDA:0,_ZNSt10_Head_baseILm1ESt14default_deleteINSt7__cxx1112basic_stringIcSt11char_traitsIcESaIcEEEELb1EE7_M_headERS8_
FNDA:0,_ZNSt10_Head_baseILm1ESt14default_deleteINSt7__cxx1118basic_stringstreamIcSt11char_traitsIcESaIcEEEELb1EE7_M_headERS8_
FNDA:828,_ZNSt5tupleIJPNSt7__cxx1112basic_stringIcSt11char_traitsIcESaIcEEESt14default_deleteIS5_EEEC2ILb1ELb1EEEv
FNDA:1479,_ZSt12__get_helperILm0EPNSt7__cxx1112basic_stringIcSt11char_traitsIcESaIcEEEJSt14default_deleteIS5_EEERT0_RSt11_Tuple_implIXT_EJS9_DpT1_EE
FNDA:0,_ZSt12__get_helperILm0EPNSt7__cxx1118basic_stringstreamIcSt11char_traitsIcESaIcEEEJSt14default_deleteIS5_EEERT0_RSt11_Tuple_implIXT_EJS9_DpT1_EE
FNDA:0,_ZSt12__get_helperILm1ESt14default_deleteINSt7__cxx1112basic_stringIcSt11char_traitsIcESaIcEEEEJEERT0_RSt11_Tuple_implIXT_EJS8_DpT1_EE
FNDA:0,_ZSt12__get_helperILm1ESt14default_deleteINSt7__cxx1118basic_stringstreamIcSt11char_traitsIcESaIcEEEEJEERT0_RSt11_Tuple_implIXT_EJS8_DpT1_EE
FNDA:0,_ZSt12__get_helperILm0EPNSt7__cxx1112basic_stringIcSt11char_traitsIcESaIcEEEJSt14default_deleteIS5_EEERKT0_RKSt11_Tuple_implIXT_EJS9_DpT1_EE
FNDA:1479,_ZSt3getILm0EJPNSt7__cxx1112basic_stringIcSt11char_traitsIcESaIcEEESt14default_deleteIS5_EEERNSt13tuple_elementIXT_ESt5tupleIJDpT0_EEE4typeERSD_
FNDA:0,_ZSt3getILm0EJPNSt7__cxx1118basic_stringstreamIcSt11char_traitsIcESaIcEEESt14default_deleteIS5_EEERNSt13tuple_elementIXT_ESt5tupleIJDpT0_EEE4typeERSD_
FNDA:0,_ZSt3getILm1EJPNSt7__cxx1112basic_stringIcSt11char_traitsIcESaIcEEESt14default_deleteIS5_EEERNSt13tuple_elementIXT_ESt5tupleIJDpT0_EEE4typeERSD_
FNDA:0,_ZSt3getILm1EJPNSt7__cxx1118basic_stringstreamIcSt11char_traitsIcESaIcEEESt14default_deleteIS5_EEERNSt13tuple_elementIXT_ESt5tupleIJDpT0_EEE4typeERSD_
FNDA:0,_ZSt3getILm0EJPNSt7__cxx1112basic_stringIcSt11char_traitsIcESaIcEEESt14default_deleteIS5_EEERKNSt13tuple_elementIXT_ESt5tupleIJDpT0_EEE4typeERKSD_
FNDA:828,_ZNSt10_Head_baseILm0EPNSt7__cxx1112basic_stringIcSt11char_traitsIcESaIcEEELb0EEC2Ev
FNDA:1479,_ZNSt10_Head_baseILm0EPNSt7__cxx1112basic_stringIcSt11char_traitsIcESaIcEEELb0EE7_M_headERS7_
FNDA:0,_ZNSt10_Head_baseILm0EPNSt7__cxx1118basic_stringstreamIcSt11char_traitsIcESaIcEEELb0EE7_M_headERS7_
FNDA:0,_ZNSt10_Head_baseILm0EPNSt7__cxx1112basic_stringIcSt11char_traitsIcESaIcEEELb0EE7_M_headERKS7_
FNDA:1479,_ZNSt11_Tuple_implILm0EJPNSt7__cxx1112basic_stringIcSt11char_traitsIcESaIcEEESt14default_deleteIS5_EEE7_M_headERS9_
FNDA:0,_ZNSt11_Tuple_implILm0EJPNSt7__cxx1118basic_stringstreamIcSt11char_traitsIcESaIcEEESt14default_deleteIS5_EEE7_M_headERS9_
FNDA:0,_ZNSt11_Tuple_implILm0EJPNSt7__cxx1112basic_stringIcSt11char_traitsIcESaIcEEESt14default_deleteIS5_EEE7_M_headERKS9_
FNDA:828,_ZNSt11_Tuple_implILm0EJPNSt7__cxx1112basic_stringIcSt11char_traitsIcESaIcEEESt14default_deleteIS5_EEEC2Ev
FNDA:0,_ZNSt11_Tuple_implILm1EJSt14default_deleteINSt7__cxx1112basic_stringIcSt11char_traitsIcESaIcEEEEEE7_M_headERS8_
FNDA:0,_ZNSt11_Tuple_implILm1EJSt14default_deleteINSt7__cxx1118basic_stringstreamIcSt11char_traitsIcESaIcEEEEEE7_M_headERS8_
FNDA:828,_ZNSt11_Tuple_implILm1EJSt14default_deleteINSt7__cxx1112basic_stringIcSt11char_traitsIcESaIcEEEEEEC2Ev
FNDA:828,_ZNSt10_Head_baseILm1ESt14default_deleteINSt7__cxx1112basic_stringIcSt11char_traitsIcESaIcEEEELb1EEC2Ev
FNF:25
FNH:9
DA:81,828
DA:82,828
DA:125,0
DA:190,828
DA:191,828
DA:234,1479
DA:237,0
DA:269,1479
DA:272,0
DA:280,828
DA:281,828
DA:497,0
DA:503,828
DA:504,828
DA:1317,828
DA:1319,828
DA:1787,1479
DA:1788,1479
DA:1792,0
DA:1793,0
DA:1803,1479
DA:1804,1479
DA:1809,0
DA:1810,0
LF:24
LH:16
end_of_record
TN:
SF:/usr/include/c++/13/typeinfo
FN:103,104,_ZNKSt9type_info4nameEv
FNDA:0,_ZNKSt9type_info4nameEv
FNF:1
FNH:0
DA:103,0
DA:104,0
LF:2
LH:0
end_of_record
TN:
SF:/usr/include/gtest/gtest-assertion-result.h
FN:155,161,_ZN7testing15AssertionResultC2IbEERKT_PNSt9enable_ifIXntsrSt14is_convertibleIS2_S0_E5valueEvE4typeE
FN:174,174,_ZNK7testing15AssertionResultcvbEv
FN:183,185,_ZNK7testing15AssertionResult7messageEv
FN:187,187,_ZNK7testing15AssertionResult15failure_messageEv
FNDA:828,_ZN7testing15AssertionResultC2IbEERKT_PNSt9enable_ifIXntsrSt14is_convertibleIS2_S0_E5valueEvE4typeE
FNDA:1479,_ZNK7testing15AssertionResultcvbEv
FNDA:0,_ZNK7testing15AssertionResult7messageEv
FNDA:0,_ZNK7testing15AssertionResult15failure_messageEv
FNF:4
FNH:2
DA:155,828
DA:161,828
DA:174,1479
DA:183,0
DA:184,0
DA:187,0
LF:6
LH:3
end_of_record
TN:
SF:/usr/include/gtest/gtest-message.h
FNF:0
FNH:0
LF:0
LH:0
end_of_record
TN:
SF:/usr/include/gtest/gtest-printers.h
FN:1017,1023,_ZN7testing8internal21UniversalTersePrinterIPKcE5PrintES3_PSo
FN:1108,1113,_ZN7testing8internal14UniversalPrintINSt7__cxx1112basic_stringIcSt11char_traitsIcESaIcEEEEEvRKT_PSo
FN:1108,1113,_ZN7testing8internal14UniversalPrintIiEEvRKT_PSo
FN:1108,1113,_ZN7testing8internal14UniversalPrintImEEvRKT_PSo
FN:1148,1152,_ZN7testing13PrintToStringINSt7__cxx1112basic_stringIcSt11char_traitsIcESaIcEEEEES6_RKT_
FN:1148,1152,_ZN7testing13PrintToStringIPKcEENSt7__cxx1112basic_stringIcSt11char_traitsIcESaIcEEERKT_
FN:1148,1152,_ZN7testing13PrintToStringIiEENSt7__cxx1112basic_stringIcSt11char_traitsIcESaIcEEERKT_
FN:1148,1152,_ZN7testing13PrintToStringImEENSt7__cxx1112basic_stringIcSt11char_traitsIcESaIcEEERKT_
FN:221,226,_ZN7testing8internal52internal_stream_operator_without_lexical_name_lookup13StreamPrinter10PrintValueIivEEDTcvvlsdefp0_fp_ERKT_PSo
FN:221,226,_ZN7testing8internal52internal_stream_operator_without_lexical_name_lookup13StreamPrinter10PrintValueImvEEDTcvvlsdefp0_fp_ERKT_PSo
FN:326,337,_ZN7testing8internal17PrintWithFallbackIiEEvRKT_PSo
FN:326,337,_ZN7testing8internal17PrintWithFallbackImEEvRKT_PSo
FN:357,359,_ZN7testing8internal19FormatForComparisonINSt7__cxx1112basic_stringIcSt11char_traitsIcESaIcEEEA15_cE6FormatERKS7_
FN:357,359,_ZN7testing8internal19FormatForComparisonINSt7__cxx1112basic_stringIcSt11char_traitsIcESaIcEEEA28_cE6FormatERKS7_
FN:357,359,_ZN7testing8internal19FormatForComparisonINSt7__cxx1112basic_stringIcSt11char_traitsIcESaIcEEEA38_cE6FormatERKS7_
FN:357,359,_ZN7testing8internal19FormatForComparisonINSt7__cxx1112basic_stringIcSt11char_traitsIcESaIcEEEA6_cE6FormatERKS7_
FN:357,359,_ZN7testing8internal19FormatForComparisonINSt7__cxx1112basic_stringIcSt11char_traitsIcESaIcEEEA7_cE6FormatERKS7_
FN:357,359,_ZN7testing8internal19FormatForComparisonINSt7__cxx1112basic_stringIcSt11char_traitsIcESaIcEEEA9_cE6FormatERKS7_
FN:357,359,_ZN7testing8internal19FormatForComparisonINSt7__cxx1112basic_stringIcSt11char_traitsIcESaIcEEES7_E6FormatERKS7_
FN:357,359,_ZN7testing8internal19FormatForComparisonIiiE6FormatB5cxx11ERKi
FN:357,359,_ZN7testing8internal19FormatForComparisonIimE6FormatB5cxx11ERKi
FN:357,359,_ZN7testing8internal19FormatForComparisonImiE6FormatB5cxx11ERKm
FN:366,368,_ZN7testing8internal19FormatForComparisonIA15_cNSt7__cxx1112basic_stringIcSt11char_traitsIcESaIcEEEE6FormatEPKc
FN:366,368,_ZN7testing8internal19FormatForComparisonIA28_cNSt7__cxx1112basic_stringIcSt11char_traitsIcESaIcEEEE6FormatEPKc
FN:366,368,_ZN7testing8internal19FormatForComparisonIA38_cNSt7__cxx1112basic_stringIcSt11char_traitsIcESaIcEEEE6FormatEPKc
FN:366,368,_ZN7testing8internal19FormatForComparisonIA6_cNSt7__cxx1112basic_stringIcSt11char_traitsIcESaIcEEEE6FormatEPKc
FN:366,368,_ZN7testing8internal19FormatForComparisonIA7_cNSt7__cxx1112basic_stringIcSt11char_traitsIcESaIcEEEE6FormatEPKc
FN:366,368,_ZN7testing8internal19FormatForComparisonIA9_cNSt7__cxx1112basic_stringIcSt11char_traitsIcESaIcEEEE6FormatEPKc
FN:411,411,_ZN7testing8internal19FormatForComparisonIPKcNSt7__cxx1112basic_stringIcSt11char_traitsIcESaIcEEEE6FormatES3_
FN:437,440,_ZN7testing8internal33FormatForComparisonFailureMessageIA15_cNSt7__cxx1112basic_stringIcSt11char_traitsIcESaIcEEEEES8_RKT_RKT0_
FN:437,440,_ZN7testing8internal33FormatForComparisonFailureMessageIA28_cNSt7__cxx1112basic_stringIcSt11char_traitsIcESaIcEEEEES8_RKT_RKT0_
FN:437,440,_ZN7testing8internal33FormatForComparisonFailureMessageIA38_cNSt7__cxx1112basic_stringIcSt11char_traitsIcESaIcEEEEES8_RKT_RKT0_
FN:437,440,_ZN7testing8internal33FormatForComparisonFailureMessageIA6_cNSt7__cxx1112basic_stringIcSt11char_traitsIcESaIcEEEEES8_RKT_RKT0_
FN:437,440,_ZN7testing8internal33FormatForComparisonFailureMessageIA7_cNSt7__cxx1112basic_stringIcSt11char_traitsIcESaIcEEEEES8_RKT_RKT0_
FN:437,440,_ZN7testing8internal33FormatForComparisonFailureMessageIA9_cNSt7__cxx1112basic_stringIcSt11char_traitsIcESaIcEEEEES8_RKT_RKT0_
FN:437,440,_ZN7testing8internal33FormatForComparisonFailureMessageINSt7__cxx1112basic_stringIcSt11char_traitsIcESaIcEEEA15_cEES7_RKT_RKT0_
FN:437,440,_ZN7testing8internal33FormatForComparisonFailureMessageINSt7__cxx1112basic_stringIcSt11char_traitsIcESaIcEEEA28_cEES7_RKT_RKT0_
FN:437,440,_ZN7testing8internal33FormatForComparisonFailureMessageINSt7__cxx1112basic_stringIcSt11char_traitsIcESaIcEEEA38_cEES7_RKT_RKT0_
FN:437,440,_ZN7testing8internal33FormatForComparisonFailureMessageINSt7__cxx1112basic_stringIcSt11char_traitsIcESaIcEEEA6_cEES7_RKT_RKT0_
FN:437,440,_ZN7testing8internal33FormatForComparisonFailureMessageINSt7__cxx1112basic_stringIcSt11char_traitsIcESaIcEEEA7_cEES7_RKT_RKT0_
FN:437,440,_ZN7testing8internal33FormatForComparisonFailureMessageINSt7__cxx1112basic_stringIcSt11char_traitsIcESaIcEEEA9_cEES7_RKT_RKT0_
FN:437,440,_ZN7testing8internal33FormatForComparisonFailureMessageINSt7__cxx1112basic_stringIcSt11char_traitsIcESaIcEEES7_EES7_RKT_RKT0_
FN:437,440,_ZN7testing8internal33FormatForComparisonFailureMessageIiiEENSt7__cxx1112basic_stringIcSt11char_traitsIcESaIcEEERKT_RKT0_
FN:437,440,_ZN7testing8internal33FormatForComparisonFailureMessageIimEENSt7__cxx1112basic_stringIcSt11char_traitsIcESaIcEEERKT_RKT0_
FN:437,440,_ZN7testing8internal33FormatForComparisonFailureMessageImiEENSt7__cxx1112basic_stringIcSt11char_traitsIcESaIcEEERKT_RKT0_
FN:464,466,_ZN7testing8internal7PrintToIiEEvRKT_PSo
FN:464,466,_ZN7testing8internal7PrintToImEEvRKT_PSo
FN:660,662,_ZN7testing8internal7PrintToERKNSt7__cxx1112basic_stringIcSt11char_traitsIcESaIcEEEPSo
FN:799,809,_ZN7testing8internal16UniversalPrinterINSt7__cxx1112basic_stringIcSt11char_traitsIcESaIcEEEE5PrintERKS7_PSo
FN:799,809,_ZN7testing8internal16UniversalPrinterIiE5PrintERKiPSo
FN:799,809,_ZN7testing8internal16UniversalPrinterImE5PrintERKmPSo
FN:989,991,_ZN7testing8internal21UniversalTersePrinterINSt7__cxx1112basic_stringIcSt11char_traitsIcESaIcEEEE5PrintERKS7_PSo
FN:989,991,_ZN7testing8internal21UniversalTersePrinterIiE5PrintERKiPSo
FN:989,991,_ZN7testing8internal21UniversalTersePrinterImE5PrintERKmPSo
FNDA:0,_ZN7testing8internal21UniversalTersePrinterIPKcE5PrintES3_PSo
FNDA:0,_ZN7testing8internal14UniversalPrintINSt7__cxx1112basic_stringIcSt11char_traitsIcESaIcEEEEEvRKT_PSo
FNDA:0,_ZN7testing8internal14UniversalPrintIiEEvRKT_PSo
FNDA:0,_ZN7testing8internal14UniversalPrintImEEvRKT_PSo
FNDA:0,_ZN7testing13PrintToStringINSt7__cxx1112basic_stringIcSt11char_traitsIcESaIcEEEEES6_RKT_
FNDA:0,_ZN7testing13PrintToStringIPKcEENSt7__cxx1112basic_stringIcSt11char_traitsIcESaIcEEERKT_
FNDA:0,_ZN7testing13PrintToStringIiEENSt7__cxx1112basic_stringIcSt11char_traitsIcESaIcEEERKT_
FNDA:0,_ZN7testing13PrintToStringImEENSt7__cxx1112basic_stringIcSt11char_traitsIcESaIcEEERKT_
FNDA:0,_ZN7testing8internal52internal_stream_operator_without_lexical_name_lookup13StreamPrinter10PrintValueIivEEDTcvvlsdefp0_fp_ERKT_PSo
FNDA:0,_ZN7testing8internal52internal_stream_operator_without_lexical_name_lookup13StreamPrinter10PrintValueImvEEDTcvvlsdefp0_fp_ERKT_PSo
FNDA:0,_ZN7testing8internal17PrintWithFallbackIiEEvRKT_PSo
FNDA:0,_ZN7testing8internal17PrintWithFallbackImEEvRKT_PSo
FNDA:0,_ZN7testing8internal19FormatForComparisonINSt7__cxx1112basic_stringIcSt11char_traitsIcESaIcEEEA15_cE6FormatERKS7_
FNDA:0,_ZN7testing8internal19FormatForComparisonINSt7__cxx1112basic_stringIcSt11char_traitsIcESaIcEEEA28_cE6FormatERKS7_
FNDA:0,_ZN7testing8internal19FormatForComparisonINSt7__cxx1112basic_stringIcSt11char_traitsIcESaIcEEEA38_cE6FormatERKS7_
FNDA:0,_ZN7testing8internal19FormatForComparisonINSt7__cxx1112basic_stringIcSt11char_traitsIcESaIcEEEA6_cE6FormatERKS7_
FNDA:0,_ZN7testing8internal19FormatForComparisonINSt7__cxx1112basic_stringIcSt11char_traitsIcESaIcEEEA7_cE6FormatERKS7_
FNDA:0,_ZN7testing8internal19FormatForComparisonINSt7__cxx1112basic_stringIcSt11char_traitsIcESaIcEEEA9_cE6FormatERKS7_
FNDA:0,_ZN7testing8internal19FormatForComparisonINSt7__cxx1112basic_stringIcSt11char_traitsIcESaIcEEES7_E6FormatERKS7_
FNDA:0,_ZN7testing8internal19FormatForComparisonIiiE6FormatB5cxx11ERKi
FNDA:0,_ZN7testing8internal19FormatForComparisonIimE6FormatB5cxx11ERKi
FNDA:0,_ZN7testing8internal19FormatForComparisonImiE6FormatB5cxx11ERKm
FNDA:0,_ZN7testing8internal19FormatForComparisonIA15_cNSt7__cxx1112basic_stringIcSt11char_traitsIcESaIcEEEE6FormatEPKc
FNDA:0,_ZN7testing8internal19FormatForComparisonIA28_cNSt7__cxx1112basic_stringIcSt11char_traitsIcESaIcEEEE6FormatEPKc
FNDA:0,_ZN7testing8internal19FormatForComparisonIA38_cNSt7__cxx1112basic_stringIcSt11char_traitsIcESaIcEEEE6FormatEPKc
FNDA:0,_ZN7testing8internal19FormatForComparisonIA6_cNSt7__cxx1112basic_stringIcSt11char_traitsIcESaIcEEEE6FormatEPKc
FNDA:0,_ZN7testing8internal19FormatForComparisonIA7_cNSt7__cxx1112basic_stringIcSt11char_traitsIcESaIcEEEE6FormatEPKc
FNDA:0,_ZN7testing8internal19FormatForComparisonIA9_cNSt7__cxx1112basic_stringIcSt11char_traitsIcESaIcEEEE6FormatEPKc
FNDA:0,_ZN7testing8internal19FormatForComparisonIPKcNSt7__cxx1112basic_stringIcSt11char_traitsIcESaIcEEEE6FormatES3_
FNDA:0,_ZN7testing8internal33FormatForComparisonFailureMessageIA15_cNSt7__cxx1112basic_stringIcSt11char_traitsIcESaIcEEEEES8_RKT_RKT0_
FNDA:0,_ZN7testing8internal33FormatForComparisonFailureMessageIA28_cNSt7__cxx1112basic_stringIcSt11char_traitsIcESaIcEEEEES8_RKT_RKT0_
FNDA:0,_ZN7testing8internal33FormatForComparisonFailureMessageIA38_cNSt7__cxx1112basic_stringIcSt11char_traitsIcESaIcEEEEES8_RKT_RKT0_
FNDA:0,_ZN7testing8internal33FormatForComparisonFailureMessageIA6_cNSt7__cxx1112basic_stringIcSt11char_traitsIcESaIcEEEEES8_RKT_RKT0_
FNDA:0,_ZN7testing8internal33FormatForComparisonFailureMessageIA7_cNSt7__cxx1112basic_stringIcSt11char_traitsIcESaIcEEEEES8_RKT_RKT0_
FNDA:0,_ZN7testing8internal33FormatForComparisonFailureMessageIA9_cNSt7__cxx1112basic_stringIcSt11char_traitsIcESaIcEEEEES8_RKT_RKT0_
FNDA:0,_ZN7testing8internal33FormatForComparisonFailureMessageINSt7__cxx1112basic_stringIcSt11char_traitsIcESaIcEEEA15_cEES7_RKT_RKT0_
FNDA:0,_ZN7testing8internal33FormatForComparisonFailureMessageINSt7__cxx1112basic_stringIcSt11char_traitsIcESaIcEEEA28_cEES7_RKT_RKT0_
FNDA:0,_ZN7testing8internal33FormatForComparisonFailureMessageINSt7__cxx1112basic_stringIcSt11char_traitsIcESaIcEEEA38_cEES7_RKT_RKT0_
FNDA:0,_ZN7testing8internal33FormatForComparisonFailureMessageINSt7__cxx1112basic_stringIcSt11char_traitsIcESaIcEEEA6_cEES7_RKT_RKT0_
FNDA:0,_ZN7testing8internal33FormatForComparisonFailureMessageINSt7__cxx1112basic_stringIcSt11char_traitsIcESaIcEEEA7_cEES7_RKT_RKT0_
FNDA:0,_ZN7testing8internal33FormatForComparisonFailureMessageINSt7__cxx1112basic_stringIcSt11char_traitsIcESaIcEEEA9_cEES7_RKT_RKT0_
FNDA:0,_ZN7testing8internal33FormatForComparisonFailureMessageINSt7__cxx1112basic_stringIcSt11char_traitsIcESaIcEEES7_EES7_RKT_RKT0_
FNDA:0,_ZN7testing8internal33FormatForComparisonFailureMessageIiiEENSt7__cxx1112basic_stringIcSt11char_traitsIcESaIcEEERKT_RKT0_
FNDA:0,_ZN7testing8internal33FormatForComparisonFailureMessageIimEENSt7__cxx1112basic_stringIcSt11char_traitsIcESaIcEEERKT_RKT0_
FNDA:0,_ZN7testing8internal33FormatForComparisonFailureMessageImiEENSt7__cxx1112basic_stringIcSt11char_traitsIcESaIcEEERKT_RKT0_
FNDA:0,_ZN7testing8internal7PrintToIiEEvRKT_PSo
FNDA:0,_ZN7testing8internal7PrintToImEEvRKT_PSo
FNDA:0,_ZN7testing8internal7PrintToERKNSt7__cxx1112basic_stringIcSt11char_traitsIcESaIcEEEPSo
FNDA:0,_ZN7testing8internal16UniversalPrinterINSt7__cxx1112basic_stringIcSt11char_traitsIcESaIcEEEE5PrintERKS7_PSo
FNDA:0,_ZN7testing8internal16UniversalPrinterIiE5PrintERKiPSo
FNDA:0,_ZN7testing8internal16UniversalPrinterImE5PrintERKmPSo
FNDA:0,_ZN7testing8internal21UniversalTersePrinterINSt7__cxx1112basic_stringIcSt11char_traitsIcESaIcEEEE5PrintERKS7_PSo
FNDA:0,_ZN7testing8internal21UniversalTersePrinterIiE5PrintERKiPSo
FNDA:0,_ZN7testing8internal21UniversalTersePrinterImE5PrintERKmPSo
FNF:54
FNH:0
DA:221,0
DA:225,0
DA:226,0
DA:326,0
DA:336,0
DA:337,0
DA:357,0
DA:358,0
DA:366,0
DA:367,0
DA:411,0
DA:437,0
DA:439,0
DA:464,0
DA:465,0
DA:466,0
DA:660,0
DA:661,0
DA:662,0
DA:799,0
DA:808,0
DA:809,0
DA:989,0
DA:990,0
DA:991,0
DA:1017,0
DA:1018,0
DA:1019,0
DA:1021,0
DA:1023,0
DA:1108,0
DA:1112,0
DA:1113,0
DA:1148,0
DA:1149,0
DA:1150,0
DA:1151,0
DA:1152,0
LF:38
LH:0
end_of_record
TN:
SF:/usr/include/gtest/gtest.h
FN:1359,1365,_ZN7testing8internal18CmpHelperEQFailureINSt7__cxx1112basic_stringIcSt11char_traitsIcESaIcEEEA15_cEENS_15AssertionResultEPKcSB_RKT_RKT0_
FN:1359,1365,_ZN7testing8internal18CmpHelperEQFailureINSt7__cxx1112basic_stringIcSt11char_traitsIcESaIcEEEA28_cEENS_15AssertionResultEPKcSB_RKT_RKT0_
FN:1359,1365,_ZN7testing8internal18CmpHelperEQFailureINSt7__cxx1112basic_stringIcSt11char_traitsIcESaIcEEEA38_cEENS_15AssertionResultEPKcSB_RKT_RKT0_
FN:1359,1365,_ZN7testing8internal18CmpHelperEQFailureINSt7__cxx1112basic_stringIcSt11char_traitsIcESaIcEEEA6_cEENS_15AssertionResultEPKcSB_RKT_RKT0_
FN:1359,1365,_ZN7testing8internal18CmpHelperEQFailureINSt7__cxx1112basic_stringIcSt11char_traitsIcESaIcEEEA7_cEENS_15AssertionResultEPKcSB_RKT_RKT0_
FN:1359,1365,_ZN7testing8internal18CmpHelperEQFailureINSt7__cxx1112basic_stringIcSt11char_traitsIcESaIcEEEA9_cEENS_15AssertionResultEPKcSB_RKT_RKT0_
FN:1359,1365,_ZN7testing8internal18CmpHelperEQFailureINSt7__cxx1112basic_stringIcSt11char_traitsIcESaIcEEES7_EENS_15AssertionResultEPKcSA_RKT_RKT0_
FN:1359,1365,_ZN7testing8internal18CmpHelperEQFailureIiiEENS_15AssertionResultEPKcS4_RKT_RKT0_
FN:1359,1365,_ZN7testing8internal18CmpHelperEQFailureImiEENS_15AssertionResultEPKcS4_RKT_RKT0_
FN:1376,1384,_ZN7testing8internal11CmpHelperEQINSt7__cxx1112basic_stringIcSt11char_traitsIcESaIcEEEA15_cEENS_15AssertionResultEPKcSB_RKT_RKT0_
FN:1376,1384,_ZN7testing8internal11CmpHelperEQINSt7__cxx1112basic_stringIcSt11char_traitsIcESaIcEEEA28_cEENS_15AssertionResultEPKcSB_RKT_RKT0_
FN:1376,1384,_ZN7testing8internal11CmpHelperEQINSt7__cxx1112basic_stringIcSt11char_traitsIcESaIcEEEA38_cEENS_15AssertionResultEPKcSB_RKT_RKT0_
FN:1376,1384,_ZN7testing8internal11CmpHelperEQINSt7__cxx1112basic_stringIcSt11char_traitsIcESaIcEEEA6_cEENS_15AssertionResultEPKcSB_RKT_RKT0_
FN:1376,1384,_ZN7testing8internal11CmpHelperEQINSt7__cxx1112basic_stringIcSt11char_traitsIcESaIcEEEA7_cEENS_15AssertionResultEPKcSB_RKT_RKT0_
FN:1376,1384,_ZN7testing8internal11CmpHelperEQINSt7__cxx1112basic_stringIcSt11char_traitsIcESaIcEEEA9_cEENS_15AssertionResultEPKcSB_RKT_RKT0_
FN:1376,1384,_ZN7testing8internal11CmpHelperEQINSt7__cxx1112basic_stringIcSt11char_traitsIcESaIcEEES7_EENS_15AssertionResultEPKcSA_RKT_RKT0_
FN:1376,1384,_ZN7testing8internal11CmpHelperEQIiiEENS_15AssertionResultEPKcS4_RKT_RKT0_
FN:1376,1384,_ZN7testing8internal11CmpHelperEQImiEENS_15AssertionResultEPKcS4_RKT_RKT0_
FN:1395,1399,_ZN7testing8internal8EqHelper7CompareINSt7__cxx1112basic_stringIcSt11char_traitsIcESaIcEEEA15_cLPv0EEENS_15AssertionResultEPKcSD_RKT_RKT0_
FN:1395,1399,_ZN7testing8internal8EqHelper7CompareINSt7__cxx1112basic_stringIcSt11char_traitsIcESaIcEEEA28_cLPv0EEENS_15AssertionResultEPKcSD_RKT_RKT0_
FN:1395,1399,_ZN7testing8internal8EqHelper7CompareINSt7__cxx1112basic_stringIcSt11char_traitsIcESaIcEEEA38_cLPv0EEENS_15AssertionResultEPKcSD_RKT_RKT0_
FN:1395,1399,_ZN7testing8internal8EqHelper7CompareINSt7__cxx1112basic_stringIcSt11char_traitsIcESaIcEEEA6_cLPv0EEENS_15AssertionResultEPKcSD_RKT_RKT0_
FN:1395,1399,_ZN7testing8internal8EqHelper7CompareINSt7__cxx1112basic_stringIcSt11char_traitsIcESaIcEEEA7_cLPv0EEENS_15AssertionResultEPKcSD_RKT_RKT0_
FN:1395,1399,_ZN7testing8internal8EqHelper7CompareINSt7__cxx1112basic_stringIcSt11char_traitsIcESaIcEEEA9_cLPv0EEENS_15AssertionResultEPKcSD_RKT_RKT0_
FN:1395,1399,_ZN7testing8internal8EqHelper7CompareINSt7__cxx1112basic_stringIcSt11char_traitsIcESaIcEEES8_LPv0EEENS_15AssertionResultEPKcSC_RKT_RKT0_
FN:1395,1399,_ZN7testing8internal8EqHelper7CompareIiiLPv0EEENS_15AssertionResultEPKcS6_RKT_RKT0_
FN:1395,1399,_ZN7testing8internal8EqHelper7CompareImiLPv0EEENS_15AssertionResultEPKcS6_RKT_RKT0_
FN:256,256,_ZN7testing4Test14SetUpTestSuiteEv
FN:264,264,_ZN7testing4Test17TearDownTestSuiteEv
FN:269,269,_ZN7testing4Test16TearDownTestCaseEv
FN:270,270,_ZN7testing4Test13SetUpTestCaseEv
FN:357,357,_ZN7testing4Test5SetupEv
FNDA:0,_ZN7testing8internal18CmpHelperEQFailureINSt7__cxx1112basic_stringIcSt11char_traitsIcESaIcEEEA15_cEENS_15AssertionResultEPKcSB_RKT_RKT0_
FNDA:0,_ZN7testing8internal18CmpHelperEQFailureINSt7__cxx1112basic_stringIcSt11char_traitsIcESaIcEEEA28_cEENS_15AssertionResultEPKcSB_RKT_RKT0_
FNDA:0,_ZN7testing8internal18CmpHelperEQFailureINSt7__cxx1112basic_stringIcSt11char_traitsIcESaIcEEEA38_cEENS_15AssertionResultEPKcSB_RKT_RKT0_
FNDA:0,_ZN7testing8internal18CmpHelperEQFailureINSt7__cxx1112basic_stringIcSt11char_traitsIcESaIcEEEA6_cEENS_15AssertionResultEPKcSB_RKT_RKT0_
FNDA:0,_ZN7testing8internal18CmpHelperEQFailureINSt7__cxx1112basic_stringIcSt11char_traitsIcESaIcEEEA7_cEENS_15AssertionResultEPKcSB_RKT_RKT0_
FNDA:0,_ZN7testing8internal18CmpHelperEQFailureINSt7__cxx1112basic_stringIcSt11char_traitsIcESaIcEEEA9_cEENS_15AssertionResultEPKcSB_RKT_RKT0_
FNDA:0,_ZN7testing8internal18CmpHelperEQFailureINSt7__cxx1112basic_stringIcSt11char_traitsIcESaIcEEES7_EENS_15AssertionResultEPKcSA_RKT_RKT0_
FNDA:0,_ZN7testing8internal18CmpHelperEQFailureIiiEENS_15AssertionResultEPKcS4_RKT_RKT0_
FNDA:0,_ZN7testing8internal18CmpHelperEQFailureImiEENS_15AssertionResultEPKcS4_RKT_RKT0_
FNDA:3,_ZN7testing8internal11CmpHelperEQINSt7__cxx1112basic_stringIcSt11char_traitsIcESaIcEEEA15_cEENS_15AssertionResultEPKcSB_RKT_RKT0_
FNDA:3,_ZN7testing8internal11CmpHelperEQINSt7__cxx1112basic_stringIcSt11char_traitsIcESaIcEEEA28_cEENS_15AssertionResultEPKcSB_RKT_RKT0_
FNDA:3,_ZN7testing8internal11CmpHelperEQINSt7__cxx1112basic_stringIcSt11char_traitsIcESaIcEEEA38_cEENS_15AssertionResultEPKcSB_RKT_RKT0_
FNDA:57,_ZN7testing8internal11CmpHelperEQINSt7__cxx1112basic_stringIcSt11char_traitsIcESaIcEEEA6_cEENS_15AssertionResultEPKcSB_RKT_RKT0_
FNDA:57,_ZN7testing8internal11CmpHelperEQINSt7__cxx1112basic_stringIcSt11char_traitsIcESaIcEEEA7_cEENS_15AssertionResultEPKcSB_RKT_RKT0_
FNDA:3,_ZN7testing8internal11CmpHelperEQINSt7__cxx1112basic_stringIcSt11char_traitsIcESaIcEEEA9_cEENS_15AssertionResultEPKcSB_RKT_RKT0_
FNDA:210,_ZN7testing8internal11CmpHelperEQINSt7__cxx1112basic_stringIcSt11char_traitsIcESaIcEEES7_EENS_15AssertionResultEPKcSA_RKT_RKT0_
FNDA:54,_ZN7testing8internal11CmpHelperEQIiiEENS_15AssertionResultEPKcS4_RKT_RKT0_
FNDA:261,_ZN7testing8internal11CmpHelperEQImiEENS_15AssertionResultEPKcS4_RKT_RKT0_
FNDA:3,_ZN7testing8internal8EqHelper7CompareINSt7__cxx1112basic_stringIcSt11char_traitsIcESaIcEEEA15_cLPv0EEENS_15AssertionResultEPKcSD_RKT_RKT0_
FNDA:3,_ZN7testing8internal8EqHelper7CompareINSt7__cxx1112basic_stringIcSt11char_traitsIcESaIcEEEA28_cLPv0EEENS_15AssertionResultEPKcSD_RKT_RKT0_
FNDA:3,_ZN7testing8internal8EqHelper7CompareINSt7__cxx1112basic_stringIcSt11char_traitsIcESaIcEEEA38_cLPv0EEENS_15AssertionResultEPKcSD_RKT_RKT0_
FNDA:57,_ZN7testing8internal8EqHelper7CompareINSt7__cxx1112basic_stringIcSt11char_traitsIcESaIcEEEA6_cLPv0EEENS_15AssertionResultEPKcSD_RKT_RKT0_
FNDA:57,_ZN7testing8internal8EqHelper7CompareINSt7__cxx1112basic_stringIcSt11char_traitsIcESaIcEEEA7_cLPv0EEENS_15AssertionResultEPKcSD_RKT_RKT0_
FNDA:3,_ZN7testing8internal8EqHelper7CompareINSt7__cxx1112basic_stringIcSt11char_traitsIcESaIcEEEA9_cLPv0EEENS_15AssertionResultEPKcSD_RKT_RKT0_
FNDA:210,_ZN7testing8internal8EqHelper7CompareINSt7__cxx1112basic_stringIcSt11char_traitsIcESaIcEEES8_LPv0EEENS_15AssertionResultEPKcSC_RKT_RKT0_
FNDA:54,_ZN7testing8internal8EqHelper7CompareIiiLPv0EEENS_15AssertionResultEPKcS6_RKT_RKT0_
FNDA:261,_ZN7testing8internal8EqHelper7CompareImiLPv0EEENS_15AssertionResultEPKcS6_RKT_RKT0_
FNDA:0,_ZN7testing4Test14SetUpTestSuiteEv
FNDA:0,_ZN7testing4Test17TearDownTestSuiteEv
FNDA:0,_ZN7testing4Test16TearDownTestCaseEv
FNDA:0,_ZN7testing4Test13SetUpTestCaseEv
FNDA:0,_ZN7testing4Test5SetupEv
FNF:32
FNH:18
DA:256,0
DA:264,0
DA:269,0
DA:270,0
DA:357,0
DA:1359,0
DA:1364,0
DA:1376,651
DA:1379,651
DA:1380,651
DA:1383,0
DA:1395,651
DA:1398,651
LF:13
LH:5
end_of_record
TN:
SF:/usr/include/gtest/internal/gtest-internal.h
FN:419,425,_ZN7testing8internal9GetTypeIdI11AVLTreeTestEEPKvv
FN:419,425,_ZN7testing8internal9GetTypeIdI11HashMapTestEEPKvv
FN:419,425,_ZN7testing8internal9GetTypeIdI14DoubleListTestEEPKvv
FN:419,425,_ZN7testing8internal9GetTypeIdI14SingleListTestEEPKvv
FN:419,425,_ZN7testing8internal9GetTypeIdI17CuckooHashMapTestEEPKvv
FN:419,425,_ZN7testing8internal9GetTypeIdI7SetTestEEPKvv
FN:419,425,_ZN7testing8internal9GetTypeIdI9ArrayTestEEPKvv
FN:419,425,_ZN7testing8internal9GetTypeIdI9QueueTestEEPKvv
FN:419,425,_ZN7testing8internal9GetTypeIdI9StackTestEEPKvv
FN:438,438,_ZN7testing8internal15TestFactoryBaseD0Ev
FN:438,438,_ZN7testing8internal15TestFactoryBaseD2Ev
FN:445,445,_ZN7testing8internal15TestFactoryBaseC2Ev
FN:457,457,_ZN7testing8internal15TestFactoryImplI16SetTest_Add_TestE10CreateTestEv
FN:457,457,_ZN7testing8internal15TestFactoryImplI18SetTest_Clear_TestE10CreateTestEv
FN:457,457,_ZN7testing8internal15TestFactoryImplI18SetTest_Print_TestE10CreateTestEv
FN:457,457,_ZN7testing8internal15TestFactoryImplI19QueueTest_Peek_TestE10CreateTestEv
FN:457,457,_ZN7testing8internal15TestFactoryImplI19SetTest_Remove_TestE10CreateTestEv
FN:457,457,_ZN7testing8internal15TestFactoryImplI19StackTest_Peek_TestE10CreateTestEv
FN:457,457,_ZN7testing8internal15TestFactoryImplI20ArrayTest_Clear_TestE10CreateTestEv
FN:457,457,_ZN7testing8internal15TestFactoryImplI20ArrayTest_Print_TestE10CreateTestEv
FN:457,457,_ZN7testing8internal15TestFactoryImplI20QueueTest_Clear_TestE10CreateTestEv
FN:457,457,_ZN7testing8internal15TestFactoryImplI20QueueTest_Print_TestE10CreateTestEv
FN:457,457,_ZN7testing8internal15TestFactoryImplI20StackTest_Clear_TestE10CreateTestEv
FN:457,457,_ZN7testing8internal15TestFactoryImplI20StackTest_Print_TestE10CreateTestEv
FN:457,457,_ZN7testing8internal15TestFactoryImplI21ArrayTest_Insert_TestE10CreateTestEv
FN:457,457,_ZN7testing8internal15TestFactoryImplI21ArrayTest_Remove_TestE10CreateTestEv
FN:457,457,_ZN7testing8internal15TestFactoryImplI21SetTest_Contains_TestE10CreateTestEv
FN:457,457,_ZN7testing8internal15TestFactoryImplI22AVLTreeTest_Clear_TestE10CreateTestEv
FN:457,457,_ZN7testing8internal15TestFactoryImplI22AVLTreeTest_Print_TestE10CreateTestEv
FN:457,457,_ZN7testing8internal15TestFactoryImplI22ArrayTest_Replace_TestE10CreateTestEv
FN:457,457,_ZN7testing8internal15TestFactoryImplI22HashMapTest_Clear_TestE10CreateTestEv
FN:457,457,_ZN7testing8internal15TestFactoryImplI22HashMapTest_Print_TestE10CreateTestEv
FN:457,457,_ZN7testing8internal15TestFactoryImplI23AVLTreeTest_Insert_TestE10CreateTestEv
FN:457,457,_ZN7testing8internal15TestFactoryImplI23AVLTreeTest_Remove_TestE10CreateTestEv
FN:457,457,_ZN7testing8internal15TestFactoryImplI23AVLTreeTest_Search_TestE10CreateTestEv
FN:457,457,_ZN7testing8internal15TestFactoryImplI23HashMapTest_Remove_TestE10CreateTestEv
FN:457,457,_ZN7testing8internal15TestFactoryImplI23StackTest_PopEmpty_TestE10CreateTestEv
FN:457,457,_ZN7testing8internal15TestFactoryImplI24QueueTest_PeekEmpty_TestE10CreateTestEv
FN:457,457,_ZN7testing8internal15TestFactoryImplI24SetTest_AddMultiple_TestE10CreateTestEv
FN:457,457,_ZN7testing8internal15TestFactoryImplI24StackTest_PeekEmpty_TestE10CreateTestEv
FN:457,457,_ZN7testing8internal15TestFactoryImplI25ArrayTest_GetElement_TestE10CreateTestEv
FN:457,457,_ZN7testing8internal15TestFactoryImplI25DoubleListTest_Clear_TestE10CreateTestEv
FN:457,457,_ZN7testing8internal15TestFactoryImplI25DoubleListTest_Print_TestE10CreateTestEv
FN:457,457,_ZN7testing8internal15TestFactoryImplI25HashMapTest_Contains_TestE10CreateTestEv
FN:457,457,_ZN7testing8internal15TestFactoryImplI25QueueTest_FIFO_Order_TestE10CreateTestEv
FN:457,457,_ZN7testing8internal15TestFactoryImplI25SetTest_AddDuplicate_TestE10CreateTestEv
FN:457,457,_ZN7testing8internal15TestFactoryImplI25SingleListTest_Clear_TestE10CreateTestEv
FN:457,457,_ZN7testing8internal15TestFactoryImplI25SingleListTest_Print_TestE10CreateTestEv
FN:457,457,_ZN7testing8internal15TestFactoryImplI25StackTest_LIFO_Order_TestE10CreateTestEv
FN:457,457,_ZN7testing8internal15TestFactoryImplI25StackTest_PushAndPop_TestE10CreateTestEv
FN:457,457,_ZN7testing8internal15TestFactoryImplI26ArrayTest_InsertAtEnd_TestE10CreateTestEv
FN:457,457,_ZN7testing8internal15TestFactoryImplI26ArrayTest_PushAndSize_TestE10CreateTestEv
FN:457,457,_ZN7testing8internal15TestFactoryImplI26HashMapTest_PutAndGet_TestE10CreateTestEv
FN:457,457,_ZN7testing8internal15TestFactoryImplI26StackTest_PushAndSize_TestE10CreateTestEv
FN:457,457,_ZN7testing8internal15TestFactoryImplI27DoubleListTest_AddHead_TestE10CreateTestEv
FN:457,457,_ZN7testing8internal15TestFactoryImplI27DoubleListTest_AddTail_TestE10CreateTestEv
FN:457,457,_ZN7testing8internal15TestFactoryImplI27QueueTest_DequeueEmpty_TestE10CreateTestEv
FN:457,457,_ZN7testing8internal15TestFactoryImplI27SingleListTest_AddHead_TestE10CreateTestEv
FN:457,457,_ZN7testing8internal15TestFactoryImplI27SingleListTest_AddTail_TestE10CreateTestEv
FN:457,457,_ZN7testing8internal15TestFactoryImplI28CuckooHashMapTest_Clear_TestE10CreateTestEv
FN:457,457,_ZN7testing8internal15TestFactoryImplI28CuckooHashMapTest_Print_TestE10CreateTestEv
FN:457,457,_ZN7testing8internal15TestFactoryImplI28HashMapTest_PutMultiple_TestE10CreateTestEv
FN:457,457,_ZN7testing8internal15TestFactoryImplI28HashMapTest_UpdateValue_TestE10CreateTestEv
FN:457,457,_ZN7testing8internal15TestFactoryImplI28SingleListTest_Contains_TestE10CreateTestEv
FN:457,457,_ZN7testing8internal15TestFactoryImplI29ArrayTest_GetOutOfBounds_TestE10CreateTestEv
FN:457,457,_ZN7testing8internal15TestFactoryImplI29CuckooHashMapTest_Remove_TestE10CreateTestEv
FN:457,457,_ZN7testing8internal15TestFactoryImplI29QueueTest_EnqueueAndSize_TestE10CreateTestEv
FN:457,457,_ZN7testing8internal15TestFactoryImplI30AVLTreeTest_SearchInEmpty_TestE10CreateTestEv
FN:457,457,_ZN7testing8internal15TestFactoryImplI30DoubleListTest_RemoveHead_TestE10CreateTestEv
FN:457,457,_ZN7testing8internal15TestFactoryImplI30DoubleListTest_RemoveTail_TestE10CreateTestEv
FN:457,457,_ZN7testing8internal15TestFactoryImplI30SetTest_RemoveNonExistent_TestE10CreateTestEv
FN:457,457,_ZN7testing8internal15TestFactoryImplI30SingleListTest_RemoveHead_TestE10CreateTestEv
FN:457,457,_ZN7testing8internal15TestFactoryImplI30SingleListTest_RemoveTail_TestE10CreateTestEv
FN:457,457,_ZN7testing8internal15TestFactoryImplI31AVLTreeTest_InsertMultiple_TestE10CreateTestEv
FN:457,457,_ZN7testing8internal15TestFactoryImplI31AVLTreeTest_RemoveRootNode_TestE10CreateTestEv
FN:457,457,_ZN7testing8internal15TestFactoryImplI31CuckooHashMapTest_Contains_TestE10CreateTestEv
FN:457,457,_ZN7testing8internal15TestFactoryImplI31HashMapTest_GetNonExistent_TestE10CreateTestEv
FN:457,457,_ZN7testing8internal15TestFactoryImplI31HashMapTest_IntegerHashMap_TestE10CreateTestEv
FN:457,457,_ZN7testing8internal15TestFactoryImplI31SetTest_DefaultConstructor_TestE10CreateTestEv
FN:457,457,_ZN7testing8internal15TestFactoryImplI32AVLTreeTest_InsertDuplicate_TestE10CreateTestEv
FN:457,457,_ZN7testing8internal15TestFactoryImplI32AVLTreeTest_RemoveFromEmpty_TestE10CreateTestEv
FN:457,457,_ZN7testing8internal15TestFactoryImplI32AVLTreeTest_RemoveLeafNodes_TestE10CreateTestEv
FN:457,457,_ZN7testing8internal15TestFactoryImplI32ArrayTest_InsertAtBeginning_TestE10CreateTestEv
FN:457,457,_ZN7testing8internal15TestFactoryImplI32CuckooHashMapTest_PutAndGet_TestE10CreateTestEv
FN:457,457,_ZN7testing8internal15TestFactoryImplI32HashMapTest_EmptyOperations_TestE10CreateTestEv
FN:457,457,_ZN7testing8internal15TestFactoryImplI32QueueTest_EnqueueAndDequeue_TestE10CreateTestEv
FN:457,457,_ZN7testing8internal15TestFactoryImplI33AVLTreeTest_ComplexRotations_TestE10CreateTestEv
FN:457,457,_ZN7testing8internal15TestFactoryImplI33ArrayTest_DefaultConstructor_TestE10CreateTestEv
FN:457,457,_ZN7testing8internal15TestFactoryImplI33ArrayTest_MultipleOperations_TestE10CreateTestEv
FN:457,457,_ZN7testing8internal15TestFactoryImplI33DoubleListTest_RemoveElement_TestE10CreateTestEv
FN:457,457,_ZN7testing8internal15TestFactoryImplI33QueueTest_DefaultConstructor_TestE10CreateTestEv
FN:457,457,_ZN7testing8internal15TestFactoryImplI33QueueTest_MultipleOperations_TestE10CreateTestEv
FN:457,457,_ZN7testing8internal15TestFactoryImplI33SingleListTest_RemoveElement_TestE10CreateTestEv
FN:457,457,_ZN7testing8internal15TestFactoryImplI33StackTest_DefaultConstructor_TestE10CreateTestEv
FN:457,457,_ZN7testing8internal15TestFactoryImplI33StackTest_MultipleOperations_TestE10CreateTestEv
FN:457,457,_ZN7testing8internal15TestFactoryImplI34AVLTreeTest_RemoveNonExistent_TestE10CreateTestEv
FN:457,457,_ZN7testing8internal15TestFactoryImplI34ArrayTest_BinarySerialization_TestE10CreateTestEv
FN:457,457,_ZN7testing8internal15TestFactoryImplI34CuckooHashMapTest_PutMultiple_TestE10CreateTestEv
FN:457,457,_ZN7testing8internal15TestFactoryImplI34CuckooHashMapTest_UpdateValue_TestE10CreateTestEv
FN:457,457,_ZN7testing8internal15TestFactoryImplI34HashMapTest_CollisionHandling_TestE10CreateTestEv
FN:457,457,_ZN7testing8internal15TestFactoryImplI34HashMapTest_RemoveAndReinsert_TestE10CreateTestEv
FN:457,457,_ZN7testing8internal15TestFactoryImplI34HashMapTest_RemoveNonExistent_TestE10CreateTestEv
FN:457,457,_ZN7testing8internal15TestFactoryImplI34QueueTest_BinarySerialization_TestE10CreateTestEv
FN:457,457,_ZN7testing8internal15TestFactoryImplI34StackTest_BinarySerialization_TestE10CreateTestEv
FN:457,457,_ZN7testing8internal15TestFactoryImplI35AVLTreeTest_DefaultConstructor_TestE10CreateTestEv
FN:457,457,_ZN7testing8internal15TestFactoryImplI35AVLTreeTest_MultipleOperations_TestE10CreateTestEv
FN:457,457,_ZN7testing8internal15TestFactoryImplI35DoubleListTest_AddHeadMultiple_TestE10CreateTestEv
FN:457,457,_ZN7testing8internal15TestFactoryImplI35HashMapTest_DefaultConstructor_TestE10CreateTestEv
FN:457,457,_ZN7testing8internal15TestFactoryImplI35SingleListTest_AddHeadMultiple_TestE10CreateTestEv
FN:457,457,_ZN7testing8internal15TestFactoryImplI36AVLTreeTest_BalanceLeftRotation_TestE10CreateTestEv
FN:457,457,_ZN7testing8internal15TestFactoryImplI36AVLTreeTest_BinarySerialization_TestE10CreateTestEv
FN:457,457,_ZN7testing8internal15TestFactoryImplI36HashMapTest_BinarySerialization_TestE10CreateTestEv
FN:457,457,_ZN7testing8internal15TestFactoryImplI37AVLTreeTest_BalanceRightRotation_TestE10CreateTestEv
FN:457,457,_ZN7testing8internal15TestFactoryImplI37DoubleListTest_RemoveNonExistent_TestE10CreateTestEv
FN:457,457,_ZN7testing8internal15TestFactoryImplI37SingleListTest_RemoveNonExistent_TestE10CreateTestEv
FN:457,457,_ZN7testing8internal15TestFactoryImplI38DoubleListTest_DefaultConstructor_TestE10CreateTestEv
FN:457,457,_ZN7testing8internal15TestFactoryImplI38SingleListTest_DefaultConstructor_TestE10CreateTestEv
FN:457,457,_ZN7testing8internal15TestFactoryImplI40CuckooHashMapTest_CollisionHandling_TestE10CreateTestEv
FN:457,457,_ZN7testing8internal15TestFactoryImplI40CuckooHashMapTest_RemoveNonExistent_TestE10CreateTestEv
FN:457,457,_ZN7testing8internal15TestFactoryImplI41AVLTreeTest_BalanceLeftRightRotation_TestE10CreateTestEv
FN:457,457,_ZN7testing8internal15TestFactoryImplI41AVLTreeTest_BalanceRightLeftRotation_TestE10CreateTestEv
FN:457,457,_ZN7testing8internal15TestFactoryImplI41CuckooHashMapTest_DefaultConstructor_TestE10CreateTestEv
FN:478,479,_ZN7testing8internal12CodeLocationC2ERKNSt7__cxx1112basic_stringIcSt11char_traitsIcESaIcEEEi
FN:491,494,_ZN7testing8internal19GetNotDefaultOrNullEPFvvES2_
FN:506,525,_ZN7testing8internal16SuiteApiResolverI11AVLTreeTestE19GetSetUpCaseOrSuiteEPKci
FN:506,525,_ZN7testing8internal16SuiteApiResolverI11HashMapTestE19GetSetUpCaseOrSuiteEPKci
FN:506,525,_ZN7testing8internal16SuiteApiResolverI14DoubleListTestE19GetSetUpCaseOrSuiteEPKci
FN:506,525,_ZN7testing8internal16SuiteApiResolverI14SingleListTestE19GetSetUpCaseOrSuiteEPKci
FN:506,525,_ZN7testing8internal16SuiteApiResolverI17CuckooHashMapTestE19GetSetUpCaseOrSuiteEPKci
FN:506,525,_ZN7testing8internal16SuiteApiResolverI7SetTestE19GetSetUpCaseOrSuiteEPKci
FN:506,525,_ZN7testing8internal16SuiteApiResolverI9ArrayTestE19GetSetUpCaseOrSuiteEPKci
FN:506,525,_ZN7testing8internal16SuiteApiResolverI9QueueTestE19GetSetUpCaseOrSuiteEPKci
FN:506,525,_ZN7testing8internal16SuiteApiResolverI9StackTestE19GetSetUpCaseOrSuiteEPKci
FN:527,546,_ZN7testing8internal16SuiteApiResolverI11AVLTreeTestE22GetTearDownCaseOrSuiteEPKci
FN:527,546,_ZN7testing8internal16SuiteApiResolverI11HashMapTestE22GetTearDownCaseOrSuiteEPKci
FN:527,546,_ZN7testing8internal16SuiteApiResolverI14DoubleListTestE22GetTearDownCaseOrSuiteEPKci
FN:527,546,_ZN7testing8internal16SuiteApiResolverI14SingleListTestE22GetTearDownCaseOrSuiteEPKci
FN:527,546,_ZN7testing8internal16SuiteApiResolverI17CuckooHashMapTestE22GetTearDownCaseOrSuiteEPKci
FN:527,546,_ZN7testing8internal16SuiteApiResolverI7SetTestE22GetTearDownCaseOrSuiteEPKci
FN:527,546,_ZN7testing8internal16SuiteApiResolverI9ArrayTestE22GetTearDownCaseOrSuiteEPKci
FN:527,546,_ZN7testing8internal16SuiteApiResolverI9QueueTestE22GetTearDownCaseOrSuiteEPKci
FN:527,546,_ZN7testing8internal16SuiteApiResolverI9StackTestE22GetTearDownCaseOrSuiteEPKci
FN:843,843,_ZN7testing8internal14TrueWithStringC2Ev
FN:846,846,_ZNK7testing8internal14TrueWithStringcvbEv
FNDA:60,_ZN7testing8internal9GetTypeIdI11AVLTreeTestEEPKvv
FNDA:45,_ZN7testing8internal9GetTypeIdI11HashMapTestEEPKvv
FNDA:30,_ZN7testing8internal9GetTypeIdI14DoubleListTestEEPKvv
FNDA:33,_ZN7testing8internal9GetTypeIdI14SingleListTestEEPKvv
FNDA:30,_ZN7testing8internal9GetTypeIdI17CuckooHashMapTestEEPKvv
FNDA:27,_ZN7testing8internal9GetTypeIdI7SetTestEEPKvv
FNDA:39,_ZN7testing8internal9GetTypeIdI9ArrayTestEEPKvv
FNDA:33,_ZN7testing8internal9GetTypeIdI9QueueTestEEPKvv
FNDA:33,_ZN7testing8internal9GetTypeIdI9StackTestEEPKvv
FNDA:0,_ZN7testing8internal15TestFactoryBaseD0Ev
FNDA:330,_ZN7testing8internal15TestFactoryBaseD2Ev
FNDA:330,_ZN7testing8internal15TestFactoryBaseC2Ev
FNDA:3,_ZN7testing8internal15TestFactoryImplI16SetTest_Add_TestE10CreateTestEv
FNDA:3,_ZN7testing8internal15TestFactoryImplI18SetTest_Clear_TestE10CreateTestEv
FNDA:3,_ZN7testing8internal15TestFactoryImplI18SetTest_Print_TestE10CreateTestEv
FNDA:3,_ZN7testing8internal15TestFactoryImplI19QueueTest_Peek_TestE10CreateTestEv
FNDA:3,_ZN7testing8internal15TestFactoryImplI19SetTest_Remove_TestE10CreateTestEv
FNDA:3,_ZN7testing8internal15TestFactoryImplI19StackTest_Peek_TestE10CreateTestEv
FNDA:3,_ZN7testing8internal15TestFactoryImplI20ArrayTest_Clear_TestE10CreateTestEv
FNDA:3,_ZN7testing8internal15TestFactoryImplI20ArrayTest_Print_TestE10CreateTestEv
FNDA:3,_ZN7testing8internal15TestFactoryImplI20QueueTest_Clear_TestE10CreateTestEv
FNDA:3,_ZN7testing8internal15TestFactoryImplI20QueueTest_Print_TestE10CreateTestEv
FNDA:3,_ZN7testing8internal15TestFactoryImplI20StackTest_Clear_TestE10CreateTestEv
FNDA:3,_ZN7testing8internal15TestFactoryImplI20StackTest_Print_TestE10CreateTestEv
FNDA:3,_ZN7testing8internal15TestFactoryImplI21ArrayTest_Insert_TestE10CreateTestEv
FNDA:3,_ZN7testing8internal15TestFactoryImplI21ArrayTest_Remove_TestE10CreateTestEv
FNDA:3,_ZN7testing8internal15TestFactoryImplI21SetTest_Contains_TestE10CreateTestEv
FNDA:3,_ZN7testing8internal15TestFactoryImplI22AVLTreeTest_Clear_TestE10CreateTestEv
FNDA:3,_ZN7testing8internal15TestFactoryImplI22AVLTreeTest_Print_TestE10CreateTestEv
FNDA:3,_ZN7testing8internal15TestFactoryImplI22ArrayTest_Replace_TestE10CreateTestEv
FNDA:3,_ZN7testing8internal15TestFactoryImplI22HashMapTest_Clear_TestE10CreateTestEv
FNDA:3,_ZN7testing8internal15TestFactoryImplI22HashMapTest_Print_TestE10CreateTestEv
FNDA:3,_ZN7testing8internal15TestFactoryImplI23AVLTreeTest_Insert_TestE10CreateTestEv
FNDA:3,_ZN7testing8internal15TestFactoryImplI23AVLTreeTest_Remove_TestE10CreateTestEv
FNDA:3,_ZN7testing8internal15TestFactoryImplI23AVLTreeTest_Search_TestE10CreateTestEv
FNDA:3,_ZN7testing8internal15TestFactoryImplI23HashMapTest_Remove_TestE10CreateTestEv
FNDA:3,_ZN7testing8internal15TestFactoryImplI23StackTest_PopEmpty_TestE10CreateTestEv
FNDA:3,_ZN7testing8internal15TestFactoryImplI24QueueTest_PeekEmpty_TestE10CreateTestEv
FNDA:3,_ZN7testing8internal15TestFactoryImplI24SetTest_AddMultiple_TestE10CreateTestEv
FNDA:3,_ZN7testing8internal15TestFactoryImplI24StackTest_PeekEmpty_TestE10CreateTestEv
FNDA:3,_ZN7testing8internal15TestFactoryImplI25ArrayTest_GetElement_TestE10CreateTestEv
FNDA:3,_ZN7testing8internal15TestFactoryImplI25DoubleListTest_Clear_TestE10CreateTestEv
FNDA:3,_ZN7testing8internal15TestFactoryImplI25DoubleListTest_Print_TestE10CreateTestEv
FNDA:3,_ZN7testing8internal15TestFactoryImplI25HashMapTest_Contains_TestE10CreateTestEv
FNDA:3,_ZN7testing8internal15TestFactoryImplI25QueueTest_FIFO_Order_TestE10CreateTestEv
FNDA:3,_ZN7testing8internal15TestFactoryImplI25SetTest_AddDuplicate_TestE10CreateTestEv
FNDA:3,_ZN7testing8internal15TestFactoryImplI25SingleListTest_Clear_TestE10CreateTestEv
FNDA:3,_ZN7testing8internal15TestFactoryImplI25SingleListTest_Print_TestE10CreateTestEv
FNDA:3,_ZN7testing8internal15TestFactoryImplI25StackTest_LIFO_Order_TestE10CreateTestEv
FNDA:3,_ZN7testing8internal15TestFactoryImplI25StackTest_PushAndPop_TestE10CreateTestEv
FNDA:3,_ZN7testing8internal15TestFactoryImplI26ArrayTest_InsertAtEnd_TestE10CreateTestEv
FNDA:3,_ZN7testing8internal15TestFactoryImplI26ArrayTest_PushAndSize_TestE10CreateTestEv
FNDA:3,_ZN7testing8internal15TestFactoryImplI26HashMapTest_PutAndGet_TestE10CreateTestEv
FNDA:3,_ZN7testing8internal15TestFactoryImplI26StackTest_PushAndSize_TestE10CreateTestEv
FNDA:3,_ZN7testing8internal15TestFactoryImplI27DoubleListTest_AddHead_TestE10CreateTestEv
FNDA:3,_ZN7testing8internal15TestFactoryImplI27DoubleListTest_AddTail_TestE10CreateTestEv
FNDA:3,_ZN7testing8internal15TestFactoryImplI27QueueTest_DequeueEmpty_TestE10CreateTestEv
FNDA:3,_ZN7testing8internal15TestFactoryImplI27SingleListTest_AddHead_TestE10CreateTestEv
FNDA:3,_ZN7testing8internal15TestFactoryImplI27SingleListTest_AddTail_TestE10CreateTestEv
FNDA:3,_ZN7testing8internal15TestFactoryImplI28CuckooHashMapTest_Clear_TestE10CreateTestEv
FNDA:3,_ZN7testing8internal15TestFactoryImplI28CuckooHashMapTest_Print_TestE10CreateTestEv
FNDA:3,_ZN7testing8internal15TestFactoryImplI28HashMapTest_PutMultiple_TestE10CreateTestEv
FNDA:3,_ZN7testing8internal15TestFactoryImplI28HashMapTest_UpdateValue_TestE10CreateTestEv
FNDA:3,_ZN7testing8internal15TestFactoryImplI28SingleListTest_Contains_TestE10CreateTestEv
FNDA:3,_ZN7testing8internal15TestFactoryImplI29ArrayTest_GetOutOfBounds_TestE10CreateTestEv
FNDA:3,_ZN7testing8internal15TestFactoryImplI29CuckooHashMapTest_Remove_TestE10CreateTestEv
FNDA:3,_ZN7testing8internal15TestFactoryImplI29QueueTest_EnqueueAndSize_TestE10CreateTestEv
FNDA:3,_ZN7testing8internal15TestFactoryImplI30AVLTreeTest_SearchInEmpty_TestE10CreateTestEv
FNDA:3,_ZN7testing8internal15TestFactoryImplI30DoubleListTest_RemoveHead_TestE10CreateTestEv
FNDA:3,_ZN7testing8internal15TestFactoryImplI30DoubleListTest_RemoveTail_TestE10CreateTestEv
FNDA:3,_ZN7testing8internal15TestFactoryImplI30SetTest_RemoveNonExistent_TestE10CreateTestEv
FNDA:3,_ZN7testing8internal15TestFactoryImplI30SingleListTest_RemoveHead_TestE10CreateTestEv
FNDA:3,_ZN7testing8internal15TestFactoryImplI30SingleListTest_RemoveTail_TestE10CreateTestEv
FNDA:3,_ZN7testing8internal15TestFactoryImplI31AVLTreeTest_InsertMultiple_TestE10CreateTestEv
FNDA:3,_ZN7testing8internal15TestFactoryImplI31AVLTreeTest_RemoveRootNode_TestE10CreateTestEv
FNDA:3,_ZN7testing8internal15TestFactoryImplI31CuckooHashMapTest_Contains_TestE10CreateTestEv
FNDA:3,_ZN7testing8internal15TestFactoryImplI31HashMapTest_GetNonExistent_TestE10CreateTestEv
FNDA:3,_ZN7testing8internal15TestFactoryImplI31HashMapTest_IntegerHashMap_TestE10CreateTestEv
FNDA:3,_ZN7testing8internal15TestFactoryImplI31SetTest_DefaultConstructor_TestE10CreateTestEv
FNDA:3,_ZN7testing8internal15TestFactoryImplI32AVLTreeTest_InsertDuplicate_TestE10CreateTestEv
FNDA:3,_ZN7testing8internal15TestFactoryImplI32AVLTreeTest_RemoveFromEmpty_TestE10CreateTestEv
FNDA:3,_ZN7testing8internal15TestFactoryImplI32AVLTreeTest_RemoveLeafNodes_TestE10CreateTestEv
FNDA:3,_ZN7testing8internal15TestFactoryImplI32ArrayTest_InsertAtBeginning_TestE10CreateTestEv
FNDA:3,_ZN7testing8internal15TestFactoryImplI32CuckooHashMapTest_PutAndGet_TestE10CreateTestEv
FNDA:3,_ZN7testing8internal15TestFactoryImplI32HashMapTest_EmptyOperations_TestE10CreateTestEv
FNDA:3,_ZN7testing8internal15TestFactoryImplI32QueueTest_EnqueueAndDequeue_TestE10CreateTestEv
FNDA:3,_ZN7testing8internal15TestFactoryImplI33AVLTreeTest_ComplexRotations_TestE10CreateTestEv
FNDA:3,_ZN7testing8internal15TestFactoryImplI33ArrayTest_DefaultConstructor_TestE10CreateTestEv
FNDA:3,_ZN7testing8internal15TestFactoryImplI33ArrayTest_MultipleOperations_TestE10CreateTestEv
FNDA:3,_ZN7testing8internal15TestFactoryImplI33DoubleListTest_RemoveElement_TestE10CreateTestEv
FNDA:3,_ZN7testing8internal15TestFactoryImplI33QueueTest_DefaultConstructor_TestE10CreateTestEv
FNDA:3,_ZN7testing8internal15TestFactoryImplI33QueueTest_MultipleOperations_TestE10CreateTestEv
FNDA:3,_ZN7testing8internal15TestFactoryImplI33SingleListTest_RemoveElement_TestE10CreateTestEv
FNDA:3,_ZN7testing8internal15TestFactoryImplI33StackTest_DefaultConstructor_TestE10CreateTestEv
FNDA:3,_ZN7testing8internal15TestFactoryImplI33StackTest_MultipleOperations_TestE10CreateTestEv
FNDA:3,_ZN7testing8internal15TestFactoryImplI34AVLTreeTest_RemoveNonExistent_TestE10CreateTestEv
FNDA:3,_ZN7testing8internal15TestFactoryImplI34ArrayTest_BinarySerialization_TestE10CreateTestEv
FNDA:3,_ZN7testing8internal15TestFactoryImplI34CuckooHashMapTest_PutMultiple_TestE10CreateTestEv
FNDA:3,_ZN7testing8internal15TestFactoryImplI34CuckooHashMapTest_UpdateValue_TestE10CreateTestEv
FNDA:3,_ZN7testing8internal15TestFactoryImplI34HashMapTest_CollisionHandling_TestE10CreateTestEv
FNDA:3,_ZN7testing8internal15TestFactoryImplI34HashMapTest_RemoveAndReinsert_TestE10CreateTestEv
FNDA:3,_ZN7testing8internal15TestFactoryImplI34HashMapTest_RemoveNonExistent_TestE10CreateTestEv
FNDA:3,_ZN7testing8internal15TestFactoryImplI34QueueTest_BinarySerialization_TestE10CreateTestEv
FNDA:3,_ZN7testing8internal15TestFactoryImplI34StackTest_BinarySerialization_TestE10CreateTestEv
FNDA:3,_ZN7testing8internal15TestFactoryImplI35AVLTreeTest_DefaultConstructor_TestE10CreateTestEv
FNDA:3,_ZN7testing8internal15TestFactoryImplI35AVLTreeTest_MultipleOperations_TestE10CreateTestEv
FNDA:3,_ZN7testing8internal15TestFactoryImplI35DoubleListTest_AddHeadMultiple_TestE10CreateTestEv
FNDA:3,_ZN7testing8internal15TestFactoryImplI35HashMapTest_DefaultConstructor_TestE10CreateTestEv
FNDA:3,_ZN7testing8internal15TestFactoryImplI35SingleListTest_AddHeadMultiple_TestE10CreateTestEv
FNDA:3,_ZN7testing8internal15TestFactoryImplI36AVLTreeTest_BalanceLeftRotation_TestE10CreateTestEv
FNDA:3,_ZN7testing8internal15TestFactoryImplI36AVLTreeTest_BinarySerialization_TestE10CreateTestEv
FNDA:3,_ZN7testing8internal15TestFactoryImplI36HashMapTest_BinarySerialization_TestE10CreateTestEv
FNDA:3,_ZN7testing8internal15TestFactoryImplI37AVLTreeTest_BalanceRightRotation_TestE10CreateTestEv
FNDA:3,_ZN7testing8internal15TestFactoryImplI37DoubleListTest_RemoveNonExistent_TestE10CreateTestEv
FNDA:3,_ZN7testing8internal15TestFactoryImplI37SingleListTest_RemoveNonExistent_TestE10CreateTestEv
FNDA:3,_ZN7testing8internal15TestFactoryImplI38DoubleListTest_DefaultConstructor_TestE10CreateTestEv
FNDA:3,_ZN7testing8internal15TestFactoryImplI38SingleListTest_DefaultConstructor_TestE10CreateTestEv
FNDA:3,_ZN7testing8internal15TestFactoryImplI40CuckooHashMapTest_CollisionHandling_TestE10CreateTestEv
FNDA:3,_ZN7testing8internal15TestFactoryImplI40CuckooHashMapTest_RemoveNonExistent_TestE10CreateTestEv
FNDA:3,_ZN7testing8internal15TestFactoryImplI41AVLTreeTest_BalanceLeftRightRotation_TestE10CreateTestEv
FNDA:3,_ZN7testing8internal15TestFactoryImplI41AVLTreeTest_BalanceRightLeftRotation_TestE10CreateTestEv
FNDA:3,_ZN7testing8internal15TestFactoryImplI41CuckooHashMapTest_DefaultConstructor_TestE10CreateTestEv
FNDA:330,_ZN7testing8internal12CodeLocationC2ERKNSt7__cxx1112basic_stringIcSt11char_traitsIcESaIcEEEi
FNDA:1320,_ZN7testing8internal19GetNotDefaultOrNullEPFvvES2_
FNDA:60,_ZN7testing8internal16SuiteApiResolverI11AVLTreeTestE19GetSetUpCaseOrSuiteEPKci
FNDA:45,_ZN7testing8internal16SuiteApiResolverI11HashMapTestE19GetSetUpCaseOrSuiteEPKci
FNDA:30,_ZN7testing8internal16SuiteApiResolverI14DoubleListTestE19GetSetUpCaseOrSuiteEPKci
FNDA:33,_ZN7testing8internal16SuiteApiResolverI14SingleListTestE19GetSetUpCaseOrSuiteEPKci
FNDA:30,_ZN7testing8internal16SuiteApiResolverI17CuckooHashMapTestE19GetSetUpCaseOrSuiteEPKci
FNDA:27,_ZN7testing8internal16SuiteApiResolverI7SetTestE19GetSetUpCaseOrSuiteEPKci
FNDA:39,_ZN7testing8internal16SuiteApiResolverI9ArrayTestE19GetSetUpCaseOrSuiteEPKci
FNDA:33,_ZN7testing8internal16SuiteApiResolverI9QueueTestE19GetSetUpCaseOrSuiteEPKci
FNDA:33,_ZN7testing8internal16SuiteApiResolverI9StackTestE19GetSetUpCaseOrSuiteEPKci
FNDA:60,_ZN7testing8internal16SuiteApiResolverI11AVLTreeTestE22GetTearDownCaseOrSuiteEPKci
FNDA:45,_ZN7testing8internal16SuiteApiResolverI11HashMapTestE22GetTearDownCaseOrSuiteEPKci
FNDA:30,_ZN7testing8internal16SuiteApiResolverI14DoubleListTestE22GetTearDownCaseOrSuiteEPKci
FNDA:33,_ZN7testing8internal16SuiteApiResolverI14SingleListTestE22GetTearDownCaseOrSuiteEPKci
FNDA:30,_ZN7testing8internal16SuiteApiResolverI17CuckooHashMapTestE22GetTearDownCaseOrSuiteEPKci
FNDA:27,_ZN7testing8internal16SuiteApiResolverI7SetTestE22GetTearDownCaseOrSuiteEPKci
FNDA:39,_ZN7testing8internal16SuiteApiResolverI9ArrayTestE22GetTearDownCaseOrSuiteEPKci
FNDA:33,_ZN7testing8internal16SuiteApiResolverI9QueueTestE22GetTearDownCaseOrSuiteEPKci
FNDA:33,_ZN7testing8internal16SuiteApiResolverI9StackTestE22GetTearDownCaseOrSuiteEPKci
FNDA:21,_ZN7testing8internal14TrueWithStringC2Ev
FNDA:21,_ZNK7testing8internal14TrueWithStringcvbEv
FNF:144
FNH:143
DA:419,330
DA:424,330
DA:438,330
DA:445,330
DA:457,330
DA:478,330
DA:479,330
DA:491,1320
DA:493,1320
DA:506,330
DA:510,330
DA:512,330
DA:514,330
DA:517,0
DA:519,330
DA:527,330
DA:531,330
DA:533,330
DA:535,330
DA:538,0
DA:540,330
DA:843,21
DA:846,21
LF:23
LH:21
end_of_record
TN:
SF:/usr/include/gtest/internal/gtest-port.h
FN:1042,1042,_ZN7testing8internal8GTestLog9GetStreamEv
FNDA:0,_ZN7testing8internal8GTestLog9GetStreamEv
FNF:1
FNH:0
DA:1042,0
LF:1
LH:0
end_of_record
TN:
SF:/usr/include/gtest/internal/gtest-type-util.h
FN:61,87,_ZN7testing8internal31CanonicalizeForStdLibVersioningENSt7__cxx1112basic_stringIcSt11char_traitsIcESaIcEEE
FN:91,121,_ZN7testing8internal11GetTypeNameB5cxx11ERKSt9type_info
FNDA:0,_ZN7testing8internal31CanonicalizeForStdLibVersioningENSt7__cxx1112basic_stringIcSt11char_traitsIcESaIcEEE
FNDA:0,_ZN7testing8internal11GetTypeNameB5cxx11ERKSt9type_info
FNF:2
FNH:0
DA:61,0
DA:63,0
DA:64,0
DA:65,0
DA:67,0
DA:75,0
DA:78,0
DA:79,0
DA:80,0
DA:83,0
DA:84,0
DA:86,0
DA:91,0
DA:92,0
DA:94,0
DA:100,0
DA:101,0
DA:102,0
DA:103,0
DA:121,0
LF:20
LH:0
end_of_record
TN:
SF:/usr/include/x86_64-linux-gnu/c++/13/bits/c++config.h
FN:540,551,_ZSt23__is_constant_evaluatedv
FNDA:1545,_ZSt23__is_constant_evaluatedv
FNF:1
FNH:1
DA:540,1545
DA:547,1545
LF:2
LH:2
end_of_record
